LX51 LINKER/LOCATER V4.66.66.0                                                          04/26/2020  17:08:39  PAGE 1


LX51 LINKER/LOCATER V4.66.66.0, INVOKED BY:
C:\KEIL\C51\BIN\LX51.EXE .\Objects\STARTUP_CMS8S5880.obj, .\Objects\led.obj TO .\Objects\Target 1 PRINT (.\Listings\Targ
>> et 1.map)


CPU MODE:     8051 MODE
MEMORY MODEL: SMALL


INPUT MODULES INCLUDED:
  .\Objects\STARTUP_CMS8S5880.obj (?C_STARTUP)
         COMMENT TYPE 1: A51 / ASM51 Assembler
  .\Objects\led.obj (LED)
         COMMENT TYPE 0: C51 V9.56.0.0
  C:\KEIL\C51\LIB\C51S.LIB (?C_INIT)
         COMMENT TYPE 1: A51 / ASM51 Assembler


ACTIVE MEMORY CLASSES OF MODULE:  .\Objects\Target 1 (?C_STARTUP)

BASE        START       END         USED      MEMORY CLASS
==========================================================
C:000000H   C:000000H   C:00FFFFH   0006FBH   CODE
I:000000H   I:000000H   I:0000FFH   000001H   IDATA
I:000000H   I:000000H   I:00007FH   000037H   DATA


MEMORY MAP OF MODULE:  .\Objects\Target 1 (?C_STARTUP)


START     STOP      LENGTH    ALIGN  RELOC    MEMORY CLASS   SEGMENT NAME
=========================================================================

* * * * * * * * * * *   D A T A   M E M O R Y   * * * * * * * * * * * * *
000000H   000007H   000008H   ---    AT..     DATA           "REG BANK 0"
000008H   000012H   00000BH   BYTE   UNIT     DATA           ?DT?LED
000013H   000016H   000004H   BYTE   UNIT     DATA           ?DT?_DELAY_MS?LED
000017H   00001AH   000004H   BYTE   UNIT     DATA           ?DT?_LED_LOOP_R?LED
00001BH   00001EH   000004H   BYTE   UNIT     DATA           ?DT?_LED_LOOP_G?LED
00001FH   000022H   000004H   BYTE   UNIT     DATA           ?DT?_LED_LOOP_B?LED
000023H   000026H   000004H   BYTE   UNIT     DATA           ?DT?_LED_LOOP_RG?LED
000027H   00002AH   000004H   BYTE   UNIT     DATA           ?DT?_LED_LOOP_GB?LED
00002BH   00002EH   000004H   BYTE   UNIT     DATA           ?DT?_LED_LOOP_RGB?LED
00002FH   000032H   000004H   BYTE   UNIT     DATA           ?DT?_LED_LOOP_RB?LED
000033H   000034H   000002H   BYTE   UNIT     DATA           ?DT?_DELAY_US?LED
000035H   000036H   000002H   BYTE   UNIT     DATA           ?DT?_DELAY?LED
000037H   000037H   000001H   BYTE   UNIT     IDATA          ?STACK

* * * * * * * * * * *   C O D E   M E M O R Y   * * * * * * * * * * * * *
000000H   000002H   000003H   ---    OFFS..   CODE           ?CO??C_STARTUP?0
000003H   00000AH   000008H   ---    ---      **GAP**
00000BH   00000DH   000003H   BYTE   OFFS..   CODE           ?LED?0000B
00000EH   0000D2H   0000C5H   BYTE   UNIT     CODE           ?PR?DISP?LED
0000D3H   00016CH   00009AH   BYTE   UNIT     CODE           ?C_C51STARTUP
00016DH   0001DCH   000070H   BYTE   UNIT     CODE           ?PR?LED_BREATH_R?LED
0001DDH   00024CH   000070H   BYTE   UNIT     CODE           ?PR?LED_BREATH_G?LED
00024DH   0002BCH   000070H   BYTE   UNIT     CODE           ?PR?LED_BREATH_B?LED
0002BDH   00032CH   000070H   BYTE   UNIT     CODE           ?PR?LED_BREATH_RG?LED
00032DH   00039CH   000070H   BYTE   UNIT     CODE           ?PR?LED_BREATH_GB?LED
00039DH   00040CH   000070H   BYTE   UNIT     CODE           ?PR?LED_BREATH_RGB?LED
00040DH   00047CH   000070H   BYTE   UNIT     CODE           ?PR?LED_BREATH_RB?LED
00047DH   0004CDH   000051H   BYTE   UNIT     CODE           ?PR?GPIO_INIT?LED
0004CEH   000510H   000043H   BYTE   UNIT     CODE           ?PR?_DELAY_MS?LED
000511H   00054BH   00003BH   BYTE   UNIT     CODE           ?PR?_LED_LOOP_RGB?LED
00054CH   00057CH   000031H   BYTE   UNIT     CODE           ?PR?KEY_SCAN?LED
00057DH   0005ABH   00002FH   BYTE   UNIT     CODE           ?PR?_LED_LOOP_RG?LED
LX51 LINKER/LOCATER V4.66.66.0                                                        04/26/2020  17:08:39  PAGE 2


0005ACH   0005DAH   00002FH   BYTE   UNIT     CODE           ?PR?_LED_LOOP_GB?LED
0005DBH   000609H   00002FH   BYTE   UNIT     CODE           ?PR?_LED_LOOP_RB?LED
00060AH   00062EH   000025H   BYTE   UNIT     CODE           ?PR?MAIN?LED
00062FH   000651H   000023H   BYTE   UNIT     CODE           ?PR?_LED_LOOP_R?LED
000652H   000674H   000023H   BYTE   UNIT     CODE           ?PR?_LED_LOOP_G?LED
000675H   000697H   000023H   BYTE   UNIT     CODE           ?PR?_LED_LOOP_B?LED
000698H   0006AEH   000017H   BYTE   UNIT     CODE           ?C_INITSEG
0006AFH   0006C3H   000015H   BYTE   UNIT     CODE           ?PR?_DELAY?LED
0006C4H   0006D7H   000014H   BYTE   UNIT     CODE           ?PR?_DELAY_US?LED
0006D8H   0006E9H   000012H   BYTE   UNIT     CODE           ?PR?TIMER0_INT?LED
0006EAH   0006F9H   000010H   BYTE   UNIT     CODE           ?PR?TIMER0_INIT?LED
0006FAH   000702H   000009H   BYTE   UNIT     CODE           ?PR?INT_INIT?LED



OVERLAY MAP OF MODULE:   .\Objects\Target 1 (?C_STARTUP)


FUNCTION/MODULE              BIT_GROUP   DATA_GROUP 
--> CALLED FUNCTION/MODULE  START  STOP  START  STOP
====================================================
?C_C51STARTUP               ----- -----  ----- -----
  +--> MAIN/LED
  +--> ?C_INITSEG

MAIN/LED                    ----- -----  ----- -----
  +--> GPIO_INIT/LED
  +--> TIMER0_INIT/LED
  +--> INT_INIT/LED
  +--> DISP/LED

GPIO_INIT/LED               ----- -----  ----- -----

TIMER0_INIT/LED             ----- -----  ----- -----

INT_INIT/LED                ----- -----  ----- -----

DISP/LED                    ----- -----  ----- -----
  +--> _DELAY_MS/LED

_DELAY_MS/LED               ----- -----  ----- -----

?C_INITSEG                  ----- -----  ----- -----

*** NEW ROOT **************

TIMER0_INT/LED              ----- -----  ----- -----



PUBLIC SYMBOLS OF MODULE:  .\Objects\Target 1 (?C_STARTUP)


      VALUE       CLASS    TYPE      PUBLIC SYMBOL NAME
      =================================================
      00000000H   NUMBER   ---       ?C?CODESEG
      00000000H   NUMBER   ---       ?C?XDATASEG
      01000128H   CODE     ---       ?C_START
      01000000H   CODE     ---       ?C_STARTUP
      010006AFH   CODE     ---       _Delay
      010004CEH   CODE     ---       _delay_ms
      010006C4H   CODE     ---       _delay_us
      01000675H   CODE     ---       _LED_LOOP_B
      01000652H   CODE     ---       _LED_LOOP_G
      010005ACH   CODE     ---       _LED_LOOP_GB
LX51 LINKER/LOCATER V4.66.66.0                                                        04/26/2020  17:08:39  PAGE 3


      0100062FH   CODE     ---       _LED_LOOP_R
      010005DBH   CODE     ---       _LED_LOOP_RB
      0100057DH   CODE     ---       _LED_LOOP_RG
      01000511H   CODE     ---       _LED_LOOP_RGB
*SFR* 000000D0H.6 DATA     BIT       AC
*SFR* 000000E0H   DATA     BYTE      ACC
*SFR* 000000D4H   DATA     WORD      ADCMP
*SFR* 000000D1H   DATA     BYTE      ADCMPC
*SFR* 000000D5H   DATA     BYTE      ADCMPH
*SFR* 000000D4H   DATA     BYTE      ADCMPL
*SFR* 000000DFH   DATA     BYTE      ADCON0
*SFR* 000000DEH   DATA     BYTE      ADCON1
*SFR* 000000E9H   DATA     BYTE      ADCON2
*SFR* 000000D3H   DATA     BYTE      ADDLYL
*SFR* 000000DCH   DATA     WORD      ADRES
*SFR* 000000DDH   DATA     BYTE      ADRESH
*SFR* 000000DCH   DATA     BYTE      ADRESL
*SFR* 000000F0H   DATA     BYTE      B
*SFR* 000000BFH   DATA     BYTE      BUZCON
*SFR* 000000BEH   DATA     BYTE      BUZDIV
*SFR* 000000D6H   DATA     BYTE      CAPCR0
*SFR* 000000D7H   DATA     BYTE      CAPCR1
*SFR* 000000C8H.5 DATA     BIT       CAPES
*SFR* 000000C2H   DATA     WORD      CC1
*SFR* 000000C4H   DATA     WORD      CC2
*SFR* 000000C6H   DATA     WORD      CC3
*SFR* 000000CEH   DATA     BYTE      CCEN
*SFR* 000000C3H   DATA     BYTE      CCH1
*SFR* 000000C5H   DATA     BYTE      CCH2
*SFR* 000000C7H   DATA     BYTE      CCH3
*SFR* 000000C2H   DATA     BYTE      CCL1
*SFR* 000000C4H   DATA     BYTE      CCL2
*SFR* 000000C6H   DATA     BYTE      CCL3
*SFR* 0000008EH   DATA     BYTE      CKCON
*SFR* 0000008FH   DATA     BYTE      CLKDIV
*SFR* 000000D0H.7 DATA     BIT       CY
      0100000EH   CODE     ---       disp
*SFR* 00000083H   DATA     BYTE      DPH0
*SFR* 00000085H   DATA     BYTE      DPH1
*SFR* 00000082H   DATA     BYTE      DPL0
*SFR* 00000084H   DATA     BYTE      DPL1
*SFR* 00000086H   DATA     BYTE      DPS
*SFR* 00000082H   DATA     WORD      DPTR0
*SFR* 00000084H   DATA     WORD      DPTR1
*SFR* 00000093H   DATA     BYTE      DPX0
*SFR* 00000095H   DATA     BYTE      DPX1
*SFR* 000000A8H.7 DATA     BIT       EA
*SFR* 000000AAH   DATA     BYTE      EIE2
*SFR* 000000B2H   DATA     BYTE      EIF2
*SFR* 000000B9H   DATA     BYTE      EIP1
*SFR* 000000BAH   DATA     BYTE      EIP2
*SFR* 000000A8H.4 DATA     BIT       ES0
*SFR* 000000A8H.6 DATA     BIT       ES1
*SFR* 000000A8H.1 DATA     BIT       ET0
*SFR* 000000A8H.3 DATA     BIT       ET1
*SFR* 000000A8H.5 DATA     BIT       ET2
*SFR* 000000A8H   DATA     BIT       EX0
*SFR* 000000A8H.2 DATA     BIT       EX1
*SFR* 000000D0H.5 DATA     BIT       F0
*SFR* 00000091H   DATA     BYTE      FUNCCR
      0100047DH   CODE     ---       GPIO_Init
*SFR* 000000F6H   DATA     BYTE      I2CMBUF
*SFR* 000000F5H   DATA     BYTE      I2CMCR
*SFR* 000000F4H   DATA     BYTE      I2CMSA
*SFR* 000000F7H   DATA     BYTE      I2CMTP
LX51 LINKER/LOCATER V4.66.66.0                                                        04/26/2020  17:08:39  PAGE 4


*SFR* 000000F1H   DATA     BYTE      I2CSADR
*SFR* 000000F3H   DATA     BYTE      I2CSBUF
*SFR* 000000F2H   DATA     BYTE      I2CSCR
*SFR* 000000C8H.6 DATA     BIT       I3FR
*SFR* 000000A8H   DATA     BYTE      IE
*SFR* 00000088H.1 DATA     BIT       IE0
*SFR* 00000088H.3 DATA     BIT       IE1
      010006FAH   CODE     ---       INT_init
*SFR* 000000B8H   DATA     BYTE      IP
*SFR* 00000088H   DATA     BIT       IT0
*SFR* 00000088H.2 DATA     BIT       IT1
      0100054CH   CODE     ---       KEY_Scan
      00000011H   DATA     WORD      km
      0100024DH   CODE     ---       LED_BREATH_B
      010001DDH   CODE     ---       LED_BREATH_G
      0100032DH   CODE     ---       LED_BREATH_GB
      0100016DH   CODE     ---       LED_BREATH_R
      0100040DH   CODE     ---       LED_BREATH_RB
      010002BDH   CODE     ---       LED_BREATH_RG
      0100039DH   CODE     ---       LED_BREATH_RGB
*SFR* 000000FCH   DATA     WORD      MADR
*SFR* 000000FDH   DATA     BYTE      MADRH
*SFR* 000000FCH   DATA     BYTE      MADRL
      0100060AH   CODE     ---       main
*SFR* 000000FBH   DATA     BYTE      MAIN_LOCK
*SFR* 000000FFH   DATA     BYTE      MCTRL
*SFR* 000000FEH   DATA     BYTE      MDATA
*SFR* 000000D0H.2 DATA     BIT       OV
*SFR* 000000D0H   DATA     BIT       P
*SFR* 00000080H   DATA     BYTE      P0
*SFR* 00000080H   DATA     BIT       P0_0
*SFR* 00000080H.1 DATA     BIT       P0_1
*SFR* 00000080H.2 DATA     BIT       P0_2
*SFR* 00000080H.3 DATA     BIT       P0_3
*SFR* 00000080H.4 DATA     BIT       P0_4
*SFR* 00000080H.5 DATA     BIT       P0_5
*SFR* 00000080H.6 DATA     BIT       P0_6
*SFR* 00000080H.7 DATA     BIT       P0_7
*SFR* 000000ACH   DATA     BYTE      P0EXTIE
*SFR* 000000B4H   DATA     BYTE      P0EXTIF
*SFR* 0000009AH   DATA     BYTE      P0TRIS
*SFR* 00000090H   DATA     BYTE      P1
*SFR* 00000090H   DATA     BIT       P1_0
*SFR* 00000090H.1 DATA     BIT       P1_1
*SFR* 00000090H.2 DATA     BIT       P1_2
*SFR* 00000090H.3 DATA     BIT       P1_3
*SFR* 00000090H.4 DATA     BIT       P1_4
*SFR* 00000090H.5 DATA     BIT       P1_5
*SFR* 00000090H.6 DATA     BIT       P1_6
*SFR* 00000090H.7 DATA     BIT       P1_7
*SFR* 000000ADH   DATA     BYTE      P1EXTIE
*SFR* 000000B5H   DATA     BYTE      P1EXTIF
*SFR* 000000A1H   DATA     BYTE      P1TRIS
*SFR* 000000A0H   DATA     BYTE      P2
*SFR* 000000A0H   DATA     BIT       P2_0
*SFR* 000000A0H.1 DATA     BIT       P2_1
*SFR* 000000A0H.2 DATA     BIT       P2_2
*SFR* 000000A0H.3 DATA     BIT       P2_3
*SFR* 000000A0H.4 DATA     BIT       P2_4
*SFR* 000000A0H.5 DATA     BIT       P2_5
*SFR* 000000A0H.6 DATA     BIT       P2_6
*SFR* 000000A0H.7 DATA     BIT       P2_7
*SFR* 000000AEH   DATA     BYTE      P2EXTIE
*SFR* 000000B6H   DATA     BYTE      P2EXTIF
*SFR* 000000A2H   DATA     BYTE      P2TRIS
LX51 LINKER/LOCATER V4.66.66.0                                                        04/26/2020  17:08:39  PAGE 5


*SFR* 000000B0H   DATA     BYTE      P3
*SFR* 000000B0H   DATA     BIT       P3_0
*SFR* 000000B0H.1 DATA     BIT       P3_1
*SFR* 000000B0H.2 DATA     BIT       P3_2
*SFR* 000000B0H.3 DATA     BIT       P3_3
*SFR* 000000B0H.4 DATA     BIT       P3_4
*SFR* 000000B0H.5 DATA     BIT       P3_5
*SFR* 000000B0H.6 DATA     BIT       P3_6
*SFR* 000000B0H.7 DATA     BIT       P3_7
*SFR* 000000AFH   DATA     BYTE      P3EXTIE
*SFR* 000000B7H   DATA     BYTE      P3EXTIF
*SFR* 000000A3H   DATA     BYTE      P3TRIS
*SFR* 00000087H   DATA     BYTE      PCON
*SFR* 000000B8H.4 DATA     BIT       PS0
*SFR* 000000B8H.6 DATA     BIT       PS1
*SFR* 000000D0H   DATA     BYTE      PSW
*SFR* 000000B8H.1 DATA     BIT       PT0
*SFR* 000000B8H.3 DATA     BIT       PT1
*SFR* 000000B8H.5 DATA     BIT       PT2
*SFR* 000000B8H   DATA     BIT       PX0
*SFR* 000000B8H.2 DATA     BIT       PX1
*SFR* 00000098H.2 DATA     BIT       RB08
*SFR* 000000CAH   DATA     WORD      RCR
*SFR* 00000098H.4 DATA     BIT       REN0
*SFR* 00000098H   DATA     BIT       RI0
*SFR* 000000CAH   DATA     WORD      RLD
*SFR* 000000CBH   DATA     BYTE      RLDH
*SFR* 000000CAH   DATA     BYTE      RLDL
*SFR* 000000D0H.3 DATA     BIT       RS0
*SFR* 000000D0H.4 DATA     BIT       RS1
*SFR* 00000099H   DATA     BYTE      SBUF
*SFR* 00000099H   DATA     BYTE      SBUF0
*SFR* 000000EBH   DATA     BYTE      SBUF1
*SFR* 00000098H   DATA     BYTE      SCON
*SFR* 00000098H   DATA     BYTE      SCON0
*SFR* 000000EAH   DATA     BYTE      SCON1
*SFR* 00000098H.7 DATA     BIT       SM00
*SFR* 00000098H.6 DATA     BIT       SM01
*SFR* 00000098H.5 DATA     BIT       SM02
*SFR* 00000081H   DATA     BYTE      SP
*SFR* 000000ECH   DATA     BYTE      SPCR
*SFR* 000000EEH   DATA     BYTE      SPDR
*SFR* 000000EDH   DATA     BYTE      SPSR
*SFR* 000000EFH   DATA     BYTE      SSCR
*SFR* 000000CCH   DATA     WORD      T2
*SFR* 000000C8H.2 DATA     BIT       T2CM
*SFR* 000000C8H   DATA     BYTE      T2CON
*SFR* 000000C8H   DATA     BIT       T2I0
*SFR* 000000C8H.1 DATA     BIT       T2I1
*SFR* 000000CFH   DATA     BYTE      T2IE
*SFR* 000000C9H   DATA     BYTE      T2IF
*SFR* 000000C8H.7 DATA     BIT       T2PS
*SFR* 000000C8H.3 DATA     BIT       T2R0
*SFR* 000000C8H.4 DATA     BIT       T2R1
*SFR* 000000D2H   DATA     BYTE      T34MOD
*SFR* 00000096H   DATA     BYTE      TA
*SFR* 00000098H.3 DATA     BIT       TB08
*SFR* 00000088H   DATA     BYTE      TCON
      0000000DH   DATA     WORD      temp
*SFR* 00000088H.5 DATA     BIT       TF0
*SFR* 00000088H.7 DATA     BIT       TF1
*SFR* 0000008CH   DATA     BYTE      TH0
*SFR* 0000008DH   DATA     BYTE      TH1
*SFR* 000000CDH   DATA     BYTE      TH2
*SFR* 000000DBH   DATA     BYTE      TH3
LX51 LINKER/LOCATER V4.66.66.0                                                        04/26/2020  17:08:39  PAGE 6


*SFR* 000000E3H   DATA     BYTE      TH4
*SFR* 00000098H.1 DATA     BIT       TI0
      010006EAH   CODE     ---       Timer0_init
      010006D8H   CODE     ---       Timer0_INT
      00000009H   DATA     WORD      times
*SFR* 0000008AH   DATA     BYTE      TL0
*SFR* 0000008BH   DATA     BYTE      TL1
*SFR* 000000CCH   DATA     BYTE      TL2
*SFR* 000000DAH   DATA     BYTE      TL3
*SFR* 000000E2H   DATA     BYTE      TL4
*SFR* 00000089H   DATA     BYTE      TMOD
*SFR* 00000088H.4 DATA     BIT       TR0
*SFR* 00000088H.6 DATA     BIT       TR1
*SFR* 00000098H.2 DATA     BIT       U0RB8
*SFR* 00000098H.4 DATA     BIT       U0REN
*SFR* 00000098H.7 DATA     BIT       U0SM0
*SFR* 00000098H.6 DATA     BIT       U0SM1
*SFR* 00000098H.5 DATA     BIT       U0SM2
*SFR* 00000098H.3 DATA     BIT       U0TB8
      00000008H   DATA     ---       uFlg
*SFR* 00000097H   DATA     BYTE      WDCON
*SFR* 00000097H   DATA     BYTE      WDTCON
*SFR* 000000BDH   DATA     BYTE      WKTCH
*SFR* 000000BCH   DATA     BYTE      WKTCL



SYMBOL TABLE OF MODULE:  .\Objects\Target 1 (?C_STARTUP)

      VALUE       REP       CLASS    TYPE      SYMBOL NAME
      ====================================================
      ---         MODULE    ---      ---       ?C_STARTUP
      01000000H   PUBLIC    CODE     ---       ?C_STARTUP
      000000E0H   SYMBOL    DATA     ---       ACC
      000000F0H   SYMBOL    DATA     ---       B
      00000083H   SYMBOL    DATA     ---       DPH
      00000082H   SYMBOL    DATA     ---       DPL
      00000000H   SYMBOL    NUMBER   ---       IBPSTACK
      00000100H   SYMBOL    NUMBER   ---       IBPSTACKTOP
      00000100H   SYMBOL    NUMBER   ---       IDATALEN
      010000D6H   SYMBOL    CODE     ---       IDATALOOP
      00000000H   SYMBOL    NUMBER   ---       PBPSTACK
      00000100H   SYMBOL    NUMBER   ---       PBPSTACKTOP
      00000000H   SYMBOL    NUMBER   ---       PDATALEN
      00000000H   SYMBOL    NUMBER   ---       PDATASTART
      00000000H   SYMBOL    NUMBER   ---       PPAGE
      00000000H   SYMBOL    NUMBER   ---       PPAGEENABLE
      000000A0H   SYMBOL    DATA     ---       PPAGE_SFR
      00000081H   SYMBOL    DATA     ---       SP
      010000D3H   SYMBOL    CODE     ---       STARTUP1
      00000000H   SYMBOL    NUMBER   ---       XBPSTACK
      00000000H   SYMBOL    NUMBER   ---       XBPSTACKTOP
      000001FFH   SYMBOL    NUMBER   ---       XDATALEN
      010000E1H   SYMBOL    CODE     ---       XDATALOOP
      00000000H   SYMBOL    NUMBER   ---       XDATASTART
      01000000H   LINE      CODE     ---       #126
      010000D3H   LINE      CODE     ---       #133
      010000D5H   LINE      CODE     ---       #134
      010000D6H   LINE      CODE     ---       #135
      010000D7H   LINE      CODE     ---       #136
      010000D9H   LINE      CODE     ---       #140
      010000DCH   LINE      CODE     ---       #141
      010000DEH   LINE      CODE     ---       #143
      010000E0H   LINE      CODE     ---       #147
      010000E1H   LINE      CODE     ---       #148
LX51 LINKER/LOCATER V4.66.66.0                                                        04/26/2020  17:08:39  PAGE 7


      010000E2H   LINE      CODE     ---       #149
      010000E3H   LINE      CODE     ---       #150
      010000E5H   LINE      CODE     ---       #151
      010000E7H   LINE      CODE     ---       #185
      010000EAH   LINE      CODE     ---       #196

      ---         MODULE    ---      ---       LED
      00000011H   PUBLIC    DATA     WORD      km
      0000000DH   PUBLIC    DATA     WORD      temp
      00000009H   PUBLIC    DATA     WORD      times
      00000008H   PUBLIC    DATA     ---       uFlg
      010006D8H   PUBLIC    CODE     ---       Timer0_INT
      010006FAH   PUBLIC    CODE     ---       INT_init
      010006EAH   PUBLIC    CODE     ---       Timer0_init
      0100060AH   PUBLIC    CODE     ---       main
      0100040DH   PUBLIC    CODE     ---       LED_BREATH_RB
      010005DBH   PUBLIC    CODE     ---       _LED_LOOP_RB
      0100039DH   PUBLIC    CODE     ---       LED_BREATH_RGB
      01000511H   PUBLIC    CODE     ---       _LED_LOOP_RGB
      0100032DH   PUBLIC    CODE     ---       LED_BREATH_GB
      010005ACH   PUBLIC    CODE     ---       _LED_LOOP_GB
      010002BDH   PUBLIC    CODE     ---       LED_BREATH_RG
      0100057DH   PUBLIC    CODE     ---       _LED_LOOP_RG
      0100024DH   PUBLIC    CODE     ---       LED_BREATH_B
      01000675H   PUBLIC    CODE     ---       _LED_LOOP_B
      010001DDH   PUBLIC    CODE     ---       LED_BREATH_G
      01000652H   PUBLIC    CODE     ---       _LED_LOOP_G
      0100016DH   PUBLIC    CODE     ---       LED_BREATH_R
      0100062FH   PUBLIC    CODE     ---       _LED_LOOP_R
      0100000EH   PUBLIC    CODE     ---       disp
      0100054CH   PUBLIC    CODE     ---       KEY_Scan
      010006AFH   PUBLIC    CODE     ---       _Delay
      010004CEH   PUBLIC    CODE     ---       _delay_ms
      010006C4H   PUBLIC    CODE     ---       _delay_us
      0100047DH   PUBLIC    CODE     ---       GPIO_Init
      00000098H.3 SFRSYM    DATA     BIT       TB08
      000000C8H   SFRSYM    DATA     BIT       T2I0
      000000C3H   SFRSYM    DATA     BYTE      CCH1
      00000080H   SFRSYM    DATA     BYTE      P0
      000000C8H.1 SFRSYM    DATA     BIT       T2I1
      00000098H.7 SFRSYM    DATA     BIT       SM00
      000000C5H   SFRSYM    DATA     BYTE      CCH2
      00000090H   SFRSYM    DATA     BYTE      P1
      00000098H.6 SFRSYM    DATA     BIT       SM01
      000000C7H   SFRSYM    DATA     BYTE      CCH3
      000000ACH   SFRSYM    DATA     BYTE      P0EXTIE
      000000A0H   SFRSYM    DATA     BYTE      P2
      00000098H.5 SFRSYM    DATA     BIT       SM02
      000000BDH   SFRSYM    DATA     BYTE      WKTCH
      000000B4H   SFRSYM    DATA     BYTE      P0EXTIF
      000000B0H   SFRSYM    DATA     BYTE      P3
      000000ADH   SFRSYM    DATA     BYTE      P1EXTIE
      000000D0H.6 SFRSYM    DATA     BIT       AC
      000000FFH   SFRSYM    DATA     BYTE      MCTRL
      000000C2H   SFRSYM    DATA     BYTE      CCL1
      000000B5H   SFRSYM    DATA     BYTE      P1EXTIF
      000000AEH   SFRSYM    DATA     BYTE      P2EXTIE
      000000C4H   SFRSYM    DATA     BYTE      CCL2
      000000B6H   SFRSYM    DATA     BYTE      P2EXTIF
      000000AFH   SFRSYM    DATA     BYTE      P3EXTIE
      000000A8H.7 SFRSYM    DATA     BIT       EA
      000000CCH   SFRSYM    DATA     WORD      T2
      000000C6H   SFRSYM    DATA     BYTE      CCL3
      000000B7H   SFRSYM    DATA     BYTE      P3EXTIF
      000000AAH   SFRSYM    DATA     BYTE      EIE2
LX51 LINKER/LOCATER V4.66.66.0                                                        04/26/2020  17:08:39  PAGE 8


      000000BCH   SFRSYM    DATA     BYTE      WKTCL
      000000B2H   SFRSYM    DATA     BYTE      EIF2
      000000C8H.3 SFRSYM    DATA     BIT       T2R0
      000000C8H.4 SFRSYM    DATA     BIT       T2R1
      00000083H   SFRSYM    DATA     BYTE      DPH0
      000000A8H   SFRSYM    DATA     BYTE      IE
      00000085H   SFRSYM    DATA     BYTE      DPH1
      00000080H   SFRSYM    DATA     BIT       P0_0
      000000B9H   SFRSYM    DATA     BYTE      EIP1
      00000090H   SFRSYM    DATA     BIT       P1_0
      00000080H.1 SFRSYM    DATA     BIT       P0_1
      000000BAH   SFRSYM    DATA     BYTE      EIP2
      00000082H   SFRSYM    DATA     BYTE      DPL0
      000000A0H   SFRSYM    DATA     BIT       P2_0
      00000090H.1 SFRSYM    DATA     BIT       P1_1
      00000080H.2 SFRSYM    DATA     BIT       P0_2
      00000084H   SFRSYM    DATA     BYTE      DPL1
      000000B0H   SFRSYM    DATA     BIT       P3_0
      000000A0H.1 SFRSYM    DATA     BIT       P2_1
      00000090H.2 SFRSYM    DATA     BIT       P1_2
      00000080H.3 SFRSYM    DATA     BIT       P0_3
      000000B0H.1 SFRSYM    DATA     BIT       P3_1
      000000A0H.2 SFRSYM    DATA     BIT       P2_2
      00000090H.3 SFRSYM    DATA     BIT       P1_3
      00000080H.4 SFRSYM    DATA     BIT       P0_4
      000000C8H.6 SFRSYM    DATA     BIT       I3FR
      000000B0H.2 SFRSYM    DATA     BIT       P3_2
      000000A0H.3 SFRSYM    DATA     BIT       P2_3
      00000090H.4 SFRSYM    DATA     BIT       P1_4
      00000080H.5 SFRSYM    DATA     BIT       P0_5
      000000CFH   SFRSYM    DATA     BYTE      T2IE
      00000096H   SFRSYM    DATA     BYTE      TA
      00000098H.4 SFRSYM    DATA     BIT       REN0
      000000B0H.3 SFRSYM    DATA     BIT       P3_3
      000000A0H.4 SFRSYM    DATA     BIT       P2_4
      00000090H.5 SFRSYM    DATA     BIT       P1_5
      00000080H.6 SFRSYM    DATA     BIT       P0_6
      000000C9H   SFRSYM    DATA     BYTE      T2IF
      000000C8H.2 SFRSYM    DATA     BIT       T2CM
      000000B0H.4 SFRSYM    DATA     BIT       P3_4
      000000A0H.5 SFRSYM    DATA     BIT       P2_5
      00000090H.6 SFRSYM    DATA     BIT       P1_6
      00000080H.7 SFRSYM    DATA     BIT       P0_7
      000000DFH   SFRSYM    DATA     BYTE      ADCON0
      000000B0H.5 SFRSYM    DATA     BIT       P3_5
      000000A0H.6 SFRSYM    DATA     BIT       P2_6
      00000090H.7 SFRSYM    DATA     BIT       P1_7
      000000DEH   SFRSYM    DATA     BYTE      ADCON1
      000000B0H.6 SFRSYM    DATA     BIT       P3_6
      000000A0H.7 SFRSYM    DATA     BIT       P2_7
      000000E9H   SFRSYM    DATA     BYTE      ADCON2
      000000B8H   SFRSYM    DATA     BYTE      IP
      000000B0H.7 SFRSYM    DATA     BIT       P3_7
      000000CEH   SFRSYM    DATA     BYTE      CCEN
      000000D6H   SFRSYM    DATA     BYTE      CAPCR0
      000000D0H.7 SFRSYM    DATA     BIT       CY
      000000D7H   SFRSYM    DATA     BYTE      CAPCR1
      000000D2H   SFRSYM    DATA     BYTE      T34MOD
      00000093H   SFRSYM    DATA     BYTE      DPX0
      00000095H   SFRSYM    DATA     BYTE      DPX1
      000000F4H   SFRSYM    DATA     BYTE      I2CMSA
      000000F5H   SFRSYM    DATA     BYTE      I2CMCR
      00000081H   SFRSYM    DATA     BYTE      SP
      000000D0H.2 SFRSYM    DATA     BIT       OV
      000000FCH   SFRSYM    DATA     WORD      MADR
LX51 LINKER/LOCATER V4.66.66.0                                                        04/26/2020  17:08:39  PAGE 9


      000000F2H   SFRSYM    DATA     BYTE      I2CSCR
      000000C8H.7 SFRSYM    DATA     BIT       T2PS
      000000D1H   SFRSYM    DATA     BYTE      ADCMPC
      000000CBH   SFRSYM    DATA     BYTE      RLDH
      000000D5H   SFRSYM    DATA     BYTE      ADCMPH
      000000CAH   SFRSYM    DATA     BYTE      RLDL
      000000FBH   SFRSYM    DATA     BYTE      MAIN_LOCK
      000000F7H   SFRSYM    DATA     BYTE      I2CMTP
      00000099H   SFRSYM    DATA     BYTE      SBUF
      00000087H   SFRSYM    DATA     BYTE      PCON
      000000D4H   SFRSYM    DATA     BYTE      ADCMPL
      00000098H   SFRSYM    DATA     BYTE      SCON
      00000089H   SFRSYM    DATA     BYTE      TMOD
      00000088H   SFRSYM    DATA     BYTE      TCON
      000000C2H   SFRSYM    DATA     WORD      CC1
      000000C4H   SFRSYM    DATA     WORD      CC2
      000000C6H   SFRSYM    DATA     WORD      CC3
      000000ECH   SFRSYM    DATA     BYTE      SPCR
      000000DDH   SFRSYM    DATA     BYTE      ADRESH
      000000EEH   SFRSYM    DATA     BYTE      SPDR
      000000EFH   SFRSYM    DATA     BYTE      SSCR
      000000D3H   SFRSYM    DATA     BYTE      ADDLYL
      000000DCH   SFRSYM    DATA     BYTE      ADRESL
      00000088H.1 SFRSYM    DATA     BIT       IE0
      00000088H.3 SFRSYM    DATA     BIT       IE1
      0000008FH   SFRSYM    DATA     BYTE      CLKDIV
      000000F0H   SFRSYM    DATA     BYTE      B
      00000091H   SFRSYM    DATA     BYTE      FUNCCR
      0000009AH   SFRSYM    DATA     BYTE      P0TRIS
      000000A1H   SFRSYM    DATA     BYTE      P1TRIS
      000000A2H   SFRSYM    DATA     BYTE      P2TRIS
      000000E0H   SFRSYM    DATA     BYTE      ACC
      000000A3H   SFRSYM    DATA     BYTE      P3TRIS
      000000A8H.4 SFRSYM    DATA     BIT       ES0
      000000A8H.6 SFRSYM    DATA     BIT       ES1
      000000A8H.1 SFRSYM    DATA     BIT       ET0
      000000EDH   SFRSYM    DATA     BYTE      SPSR
      000000A8H.3 SFRSYM    DATA     BIT       ET1
      00000088H.5 SFRSYM    DATA     BIT       TF0
      000000A8H.5 SFRSYM    DATA     BIT       ET2
      00000098H   SFRSYM    DATA     BIT       RI0
      00000088H.7 SFRSYM    DATA     BIT       TF1
      0000008CH   SFRSYM    DATA     BYTE      TH0
      000000A8H   SFRSYM    DATA     BIT       EX0
      00000098H.1 SFRSYM    DATA     BIT       TI0
      00000088H   SFRSYM    DATA     BIT       IT0
      0000008DH   SFRSYM    DATA     BYTE      TH1
      000000A8H.2 SFRSYM    DATA     BIT       EX1
      00000088H.2 SFRSYM    DATA     BIT       IT1
      000000CDH   SFRSYM    DATA     BYTE      TH2
      000000D0H   SFRSYM    DATA     BIT       P
      000000DBH   SFRSYM    DATA     BYTE      TH3
      000000E3H   SFRSYM    DATA     BYTE      TH4
      0000008AH   SFRSYM    DATA     BYTE      TL0
      00000097H   SFRSYM    DATA     BYTE      WDTCON
      0000008BH   SFRSYM    DATA     BYTE      TL1
      00000098H.2 SFRSYM    DATA     BIT       U0RB8
      000000CCH   SFRSYM    DATA     BYTE      TL2
      000000B8H.4 SFRSYM    DATA     BIT       PS0
      000000DAH   SFRSYM    DATA     BYTE      TL3
      000000BFH   SFRSYM    DATA     BYTE      BUZCON
      000000B8H.6 SFRSYM    DATA     BIT       PS1
      000000B8H.1 SFRSYM    DATA     BIT       PT0
      00000098H.3 SFRSYM    DATA     BIT       U0TB8
      000000E2H   SFRSYM    DATA     BYTE      TL4
LX51 LINKER/LOCATER V4.66.66.0                                                        04/26/2020  17:08:39  PAGE 10


      000000D0H.3 SFRSYM    DATA     BIT       RS0
      000000B8H.3 SFRSYM    DATA     BIT       PT1
      000000D0H.4 SFRSYM    DATA     BIT       RS1
      000000B8H.5 SFRSYM    DATA     BIT       PT2
      00000098H.7 SFRSYM    DATA     BIT       U0SM0
      00000088H.4 SFRSYM    DATA     BIT       TR0
      000000BEH   SFRSYM    DATA     BYTE      BUZDIV
      00000098H.6 SFRSYM    DATA     BIT       U0SM1
      00000088H.6 SFRSYM    DATA     BIT       TR1
      000000B8H   SFRSYM    DATA     BIT       PX0
      00000098H.5 SFRSYM    DATA     BIT       U0SM2
      000000B8H.2 SFRSYM    DATA     BIT       PX1
      00000099H   SFRSYM    DATA     BYTE      SBUF0
      000000CAH   SFRSYM    DATA     WORD      RLD
      000000EBH   SFRSYM    DATA     BYTE      SBUF1
      00000098H   SFRSYM    DATA     BYTE      SCON0
      000000EAH   SFRSYM    DATA     BYTE      SCON1
      000000D4H   SFRSYM    DATA     WORD      ADCMP
      000000CAH   SFRSYM    DATA     WORD      RCR
      000000C8H   SFRSYM    DATA     BYTE      T2CON
      00000086H   SFRSYM    DATA     BYTE      DPS
      000000FEH   SFRSYM    DATA     BYTE      MDATA
      000000F6H   SFRSYM    DATA     BYTE      I2CMBUF
      000000F1H   SFRSYM    DATA     BYTE      I2CSADR
      00000098H.4 SFRSYM    DATA     BIT       U0REN
      00000082H   SFRSYM    DATA     WORD      DPTR0
      00000084H   SFRSYM    DATA     WORD      DPTR1
      000000C8H.5 SFRSYM    DATA     BIT       CAPES
      000000FDH   SFRSYM    DATA     BYTE      MADRH
      0000008EH   SFRSYM    DATA     BYTE      CKCON
      000000DCH   SFRSYM    DATA     WORD      ADRES
      000000F3H   SFRSYM    DATA     BYTE      I2CSBUF
      000000FCH   SFRSYM    DATA     BYTE      MADRL
      000000D0H.5 SFRSYM    DATA     BIT       F0
      000000D0H   SFRSYM    DATA     BYTE      PSW
      00000098H.2 SFRSYM    DATA     BIT       RB08
      00000097H   SFRSYM    DATA     BYTE      WDCON
      0000000BH   SYMBOL    DATA     BYTE      startFlag
      0000000CH   SYMBOL    DATA     BYTE      vlee
      0000000FH   SYMBOL    DATA     WORD      num

      0100047DH   BLOCK     CODE     ---       LVL=0
      0100047DH   LINE      CODE     ---       #71
      0100047DH   LINE      CODE     ---       #72
      0100047DH   LINE      CODE     ---       #73
      01000480H   LINE      CODE     ---       #74
      01000486H   LINE      CODE     ---       #75
      01000489H   LINE      CODE     ---       #77
      0100048CH   LINE      CODE     ---       #78
      01000492H   LINE      CODE     ---       #79
      01000495H   LINE      CODE     ---       #81
      01000498H   LINE      CODE     ---       #82
      0100049FH   LINE      CODE     ---       #83
      010004A4H   LINE      CODE     ---       #85
      010004A7H   LINE      CODE     ---       #86
      010004ADH   LINE      CODE     ---       #87
      010004B0H   LINE      CODE     ---       #88
      010004B4H   LINE      CODE     ---       #90
      010004C6H   LINE      CODE     ---       #92
      010004C8H   LINE      CODE     ---       #93
      010004CAH   LINE      CODE     ---       #94
      010004CDH   LINE      CODE     ---       #95
      ---         BLOCKEND  ---      ---       LVL=0

      010006C4H   BLOCK     CODE     ---       LVL=0
LX51 LINKER/LOCATER V4.66.66.0                                                        04/26/2020  17:08:39  PAGE 11


      00000033H   SYMBOL    DATA     WORD      a
      010006C4H   LINE      CODE     ---       #98
      010006C8H   LINE      CODE     ---       #99
      010006C8H   LINE      CODE     ---       #101
      010006D7H   LINE      CODE     ---       #102
      ---         BLOCKEND  ---      ---       LVL=0

      010004CEH   BLOCK     CODE     ---       LVL=0
      00000013H   SYMBOL    DATA     WORD      ms
      010004D2H   BLOCK     CODE     NEAR LAB  LVL=1
      00000015H   SYMBOL    DATA     WORD      ti
      ---         BLOCKEND  ---      ---       LVL=1
      010004CEH   LINE      CODE     ---       #105
      010004D2H   LINE      CODE     ---       #106
      010004D2H   LINE      CODE     ---       #109
      010004E1H   LINE      CODE     ---       #110
      010004E1H   LINE      CODE     ---       #111
      010004EAH   LINE      CODE     ---       #112
      01000505H   LINE      CODE     ---       #113
      01000509H   LINE      CODE     ---       #114
      01000509H   LINE      CODE     ---       #116
      0100050CH   LINE      CODE     ---       #117
      0100050CH   LINE      CODE     ---       #119
      0100050EH   LINE      CODE     ---       #120
      01000510H   LINE      CODE     ---       #121
      ---         BLOCKEND  ---      ---       LVL=0

      010006AFH   BLOCK     CODE     ---       LVL=0
      00000035H   SYMBOL    DATA     WORD      nCount
      010006AFH   LINE      CODE     ---       #124
      010006B3H   LINE      CODE     ---       #125
      010006B3H   LINE      CODE     ---       #126
      010006C3H   LINE      CODE     ---       #127
      ---         BLOCKEND  ---      ---       LVL=0

      0100054CH   BLOCK     CODE     ---       LVL=0
      0100054CH   LINE      CODE     ---       #129
      0100054CH   LINE      CODE     ---       #130
      0100054CH   LINE      CODE     ---       #131
      0100054FH   LINE      CODE     ---       #132
      0100054FH   LINE      CODE     ---       #134
      01000557H   LINE      CODE     ---       #135
      01000565H   LINE      CODE     ---       #136
      01000565H   LINE      CODE     ---       #138
      0100056BH   LINE      CODE     ---       #139
      0100056EH   LINE      CODE     ---       #142
      0100056FH   LINE      CODE     ---       #144
      0100056FH   LINE      CODE     ---       #145
      01000575H   LINE      CODE     ---       #146
      01000575H   LINE      CODE     ---       #148
      01000576H   LINE      CODE     ---       #150
      01000576H   LINE      CODE     ---       #151
      0100057CH   LINE      CODE     ---       #152
      0100057CH   LINE      CODE     ---       #153
      ---         BLOCKEND  ---      ---       LVL=0

      0100000EH   BLOCK     CODE     ---       LVL=0
      0100000EH   LINE      CODE     ---       #156
      0100000EH   LINE      CODE     ---       #157
      0100000EH   LINE      CODE     ---       #159
      01000011H   LINE      CODE     ---       #161
      01000017H   LINE      CODE     ---       #162
      01000024H   LINE      CODE     ---       #163
      0100003BH   LINE      CODE     ---       #164
      01000054H   LINE      CODE     ---       #165
LX51 LINKER/LOCATER V4.66.66.0                                                        04/26/2020  17:08:39  PAGE 12


      01000066H   LINE      CODE     ---       #166
      0100007AH   LINE      CODE     ---       #167
      01000090H   LINE      CODE     ---       #168
      010000A2H   LINE      CODE     ---       #169
      010000B6H   LINE      CODE     ---       #170
      010000C2H   LINE      CODE     ---       #171
      010000CCH   LINE      CODE     ---       #172
      010000CCH   LINE      CODE     ---       #173
      010000D2H   LINE      CODE     ---       #175
      010000D2H   LINE      CODE     ---       #176
      010000D2H   LINE      CODE     ---       #177
      ---         BLOCKEND  ---      ---       LVL=0

      0100062FH   BLOCK     CODE     ---       LVL=0
      00000017H   SYMBOL    DATA     WORD      on
      00000019H   SYMBOL    DATA     WORD      off
      0100062FH   LINE      CODE     ---       #179
      01000637H   LINE      CODE     ---       #180
      01000637H   LINE      CODE     ---       #182
      0100063DH   LINE      CODE     ---       #183
      01000644H   LINE      CODE     ---       #184
      0100064AH   LINE      CODE     ---       #185
      01000651H   LINE      CODE     ---       #186
      ---         BLOCKEND  ---      ---       LVL=0

      0100016DH   BLOCK     CODE     ---       LVL=0
      0100016DH   LINE      CODE     ---       #188
      0100016DH   LINE      CODE     ---       #189
      0100016DH   LINE      CODE     ---       #191
      01000173H   LINE      CODE     ---       #192
      01000173H   LINE      CODE     ---       #193
      01000173H   LINE      CODE     ---       #194
      01000178H   LINE      CODE     ---       #195
      01000184H   LINE      CODE     ---       #196
      01000196H   LINE      CODE     ---       #197
      010001A1H   LINE      CODE     ---       #198
      010001A3H   LINE      CODE     ---       #199
      010001A5H   LINE      CODE     ---       #201
      010001ABH   LINE      CODE     ---       #202
      010001ABH   LINE      CODE     ---       #203
      010001ABH   LINE      CODE     ---       #204
      010001B0H   LINE      CODE     ---       #205
      010001BCH   LINE      CODE     ---       #206
      010001CEH   LINE      CODE     ---       #207
      010001D9H   LINE      CODE     ---       #208
      010001DAH   LINE      CODE     ---       #209
      010001DCH   LINE      CODE     ---       #211
      ---         BLOCKEND  ---      ---       LVL=0

      01000652H   BLOCK     CODE     ---       LVL=0
      0000001BH   SYMBOL    DATA     WORD      on
      0000001DH   SYMBOL    DATA     WORD      off
      01000652H   LINE      CODE     ---       #215
      0100065AH   LINE      CODE     ---       #216
      0100065AH   LINE      CODE     ---       #218
      01000660H   LINE      CODE     ---       #219
      01000667H   LINE      CODE     ---       #220
      0100066DH   LINE      CODE     ---       #221
      01000674H   LINE      CODE     ---       #222
      ---         BLOCKEND  ---      ---       LVL=0

      010001DDH   BLOCK     CODE     ---       LVL=0
      010001DDH   LINE      CODE     ---       #224
      010001DDH   LINE      CODE     ---       #225
      010001DDH   LINE      CODE     ---       #227
LX51 LINKER/LOCATER V4.66.66.0                                                        04/26/2020  17:08:39  PAGE 13


      010001E3H   LINE      CODE     ---       #228
      010001E3H   LINE      CODE     ---       #229
      010001E3H   LINE      CODE     ---       #230
      010001E8H   LINE      CODE     ---       #231
      010001F4H   LINE      CODE     ---       #232
      01000206H   LINE      CODE     ---       #233
      01000211H   LINE      CODE     ---       #234
      01000213H   LINE      CODE     ---       #235
      01000215H   LINE      CODE     ---       #238
      0100021BH   LINE      CODE     ---       #239
      0100021BH   LINE      CODE     ---       #240
      0100021BH   LINE      CODE     ---       #241
      01000220H   LINE      CODE     ---       #242
      0100022CH   LINE      CODE     ---       #243
      0100023EH   LINE      CODE     ---       #244
      01000249H   LINE      CODE     ---       #245
      0100024AH   LINE      CODE     ---       #246
      0100024CH   LINE      CODE     ---       #248
      ---         BLOCKEND  ---      ---       LVL=0

      01000675H   BLOCK     CODE     ---       LVL=0
      0000001FH   SYMBOL    DATA     WORD      on
      00000021H   SYMBOL    DATA     WORD      off
      01000675H   LINE      CODE     ---       #251
      0100067DH   LINE      CODE     ---       #252
      0100067DH   LINE      CODE     ---       #254
      01000683H   LINE      CODE     ---       #255
      0100068AH   LINE      CODE     ---       #256
      01000690H   LINE      CODE     ---       #257
      01000697H   LINE      CODE     ---       #258
      ---         BLOCKEND  ---      ---       LVL=0

      0100024DH   BLOCK     CODE     ---       LVL=0
      0100024DH   LINE      CODE     ---       #260
      0100024DH   LINE      CODE     ---       #261
      0100024DH   LINE      CODE     ---       #263
      01000253H   LINE      CODE     ---       #264
      01000253H   LINE      CODE     ---       #265
      01000253H   LINE      CODE     ---       #266
      01000258H   LINE      CODE     ---       #267
      01000264H   LINE      CODE     ---       #268
      01000276H   LINE      CODE     ---       #269
      01000281H   LINE      CODE     ---       #270
      01000283H   LINE      CODE     ---       #271
      01000285H   LINE      CODE     ---       #274
      0100028BH   LINE      CODE     ---       #275
      0100028BH   LINE      CODE     ---       #276
      0100028BH   LINE      CODE     ---       #277
      01000290H   LINE      CODE     ---       #278
      0100029CH   LINE      CODE     ---       #279
      010002AEH   LINE      CODE     ---       #280
      010002B9H   LINE      CODE     ---       #281
      010002BAH   LINE      CODE     ---       #282
      010002BCH   LINE      CODE     ---       #284
      ---         BLOCKEND  ---      ---       LVL=0

      0100057DH   BLOCK     CODE     ---       LVL=0
      00000023H   SYMBOL    DATA     WORD      on
      00000025H   SYMBOL    DATA     WORD      off
      0100057DH   LINE      CODE     ---       #286
      01000585H   LINE      CODE     ---       #287
      01000585H   LINE      CODE     ---       #289
      01000591H   LINE      CODE     ---       #290
      01000598H   LINE      CODE     ---       #291
      010005A4H   LINE      CODE     ---       #292
LX51 LINKER/LOCATER V4.66.66.0                                                        04/26/2020  17:08:39  PAGE 14


      010005ABH   LINE      CODE     ---       #293
      ---         BLOCKEND  ---      ---       LVL=0

      010002BDH   BLOCK     CODE     ---       LVL=0
      010002BDH   LINE      CODE     ---       #295
      010002BDH   LINE      CODE     ---       #296
      010002BDH   LINE      CODE     ---       #298
      010002C3H   LINE      CODE     ---       #299
      010002C3H   LINE      CODE     ---       #300
      010002C3H   LINE      CODE     ---       #301
      010002C8H   LINE      CODE     ---       #302
      010002D4H   LINE      CODE     ---       #303
      010002E6H   LINE      CODE     ---       #304
      010002F1H   LINE      CODE     ---       #305
      010002F3H   LINE      CODE     ---       #306
      010002F5H   LINE      CODE     ---       #309
      010002FBH   LINE      CODE     ---       #310
      010002FBH   LINE      CODE     ---       #311
      010002FBH   LINE      CODE     ---       #312
      01000300H   LINE      CODE     ---       #313
      0100030CH   LINE      CODE     ---       #314
      0100031EH   LINE      CODE     ---       #315
      01000329H   LINE      CODE     ---       #316
      0100032AH   LINE      CODE     ---       #317
      0100032CH   LINE      CODE     ---       #319
      ---         BLOCKEND  ---      ---       LVL=0

      010005ACH   BLOCK     CODE     ---       LVL=0
      00000027H   SYMBOL    DATA     WORD      on
      00000029H   SYMBOL    DATA     WORD      off
      010005ACH   LINE      CODE     ---       #322
      010005B4H   LINE      CODE     ---       #323
      010005B4H   LINE      CODE     ---       #325
      010005C0H   LINE      CODE     ---       #326
      010005C7H   LINE      CODE     ---       #327
      010005D3H   LINE      CODE     ---       #328
      010005DAH   LINE      CODE     ---       #329
      ---         BLOCKEND  ---      ---       LVL=0

      0100032DH   BLOCK     CODE     ---       LVL=0
      0100032DH   LINE      CODE     ---       #331
      0100032DH   LINE      CODE     ---       #332
      0100032DH   LINE      CODE     ---       #334
      01000333H   LINE      CODE     ---       #335
      01000333H   LINE      CODE     ---       #336
      01000333H   LINE      CODE     ---       #337
      01000338H   LINE      CODE     ---       #338
      01000344H   LINE      CODE     ---       #339
      01000356H   LINE      CODE     ---       #340
      01000361H   LINE      CODE     ---       #341
      01000363H   LINE      CODE     ---       #342
      01000365H   LINE      CODE     ---       #345
      0100036BH   LINE      CODE     ---       #346
      0100036BH   LINE      CODE     ---       #347
      0100036BH   LINE      CODE     ---       #348
      01000370H   LINE      CODE     ---       #349
      0100037CH   LINE      CODE     ---       #350
      0100038EH   LINE      CODE     ---       #351
      01000399H   LINE      CODE     ---       #352
      0100039AH   LINE      CODE     ---       #353
      0100039CH   LINE      CODE     ---       #355
      ---         BLOCKEND  ---      ---       LVL=0

      01000511H   BLOCK     CODE     ---       LVL=0
      0000002BH   SYMBOL    DATA     WORD      on
LX51 LINKER/LOCATER V4.66.66.0                                                        04/26/2020  17:08:39  PAGE 15


      0000002DH   SYMBOL    DATA     WORD      off
      01000511H   LINE      CODE     ---       #358
      01000519H   LINE      CODE     ---       #359
      01000519H   LINE      CODE     ---       #361
      0100052BH   LINE      CODE     ---       #362
      01000532H   LINE      CODE     ---       #363
      01000544H   LINE      CODE     ---       #364
      0100054BH   LINE      CODE     ---       #365
      ---         BLOCKEND  ---      ---       LVL=0

      0100039DH   BLOCK     CODE     ---       LVL=0
      0100039DH   LINE      CODE     ---       #367
      0100039DH   LINE      CODE     ---       #368
      0100039DH   LINE      CODE     ---       #370
      010003A3H   LINE      CODE     ---       #371
      010003A3H   LINE      CODE     ---       #372
      010003A3H   LINE      CODE     ---       #373
      010003A8H   LINE      CODE     ---       #374
      010003B4H   LINE      CODE     ---       #375
      010003C6H   LINE      CODE     ---       #376
      010003D1H   LINE      CODE     ---       #377
      010003D3H   LINE      CODE     ---       #378
      010003D5H   LINE      CODE     ---       #381
      010003DBH   LINE      CODE     ---       #382
      010003DBH   LINE      CODE     ---       #383
      010003DBH   LINE      CODE     ---       #384
      010003E0H   LINE      CODE     ---       #385
      010003ECH   LINE      CODE     ---       #386
      010003FEH   LINE      CODE     ---       #387
      01000409H   LINE      CODE     ---       #388
      0100040AH   LINE      CODE     ---       #389
      0100040CH   LINE      CODE     ---       #391
      ---         BLOCKEND  ---      ---       LVL=0

      010005DBH   BLOCK     CODE     ---       LVL=0
      0000002FH   SYMBOL    DATA     WORD      on
      00000031H   SYMBOL    DATA     WORD      off
      010005DBH   LINE      CODE     ---       #394
      010005E3H   LINE      CODE     ---       #395
      010005E3H   LINE      CODE     ---       #397
      010005EFH   LINE      CODE     ---       #398
      010005F6H   LINE      CODE     ---       #399
      01000602H   LINE      CODE     ---       #400
      01000609H   LINE      CODE     ---       #401
      ---         BLOCKEND  ---      ---       LVL=0

      0100040DH   BLOCK     CODE     ---       LVL=0
      0100040DH   LINE      CODE     ---       #403
      0100040DH   LINE      CODE     ---       #404
      0100040DH   LINE      CODE     ---       #406
      01000413H   LINE      CODE     ---       #407
      01000413H   LINE      CODE     ---       #408
      01000413H   LINE      CODE     ---       #409
      01000418H   LINE      CODE     ---       #410
      01000424H   LINE      CODE     ---       #411
      01000436H   LINE      CODE     ---       #412
      01000441H   LINE      CODE     ---       #413
      01000443H   LINE      CODE     ---       #414
      01000445H   LINE      CODE     ---       #417
      0100044BH   LINE      CODE     ---       #418
      0100044BH   LINE      CODE     ---       #419
      0100044BH   LINE      CODE     ---       #420
      01000450H   LINE      CODE     ---       #421
      0100045CH   LINE      CODE     ---       #422
      0100046EH   LINE      CODE     ---       #423
LX51 LINKER/LOCATER V4.66.66.0                                                        04/26/2020  17:08:39  PAGE 16


      01000479H   LINE      CODE     ---       #424
      0100047AH   LINE      CODE     ---       #425
      0100047CH   LINE      CODE     ---       #427
      ---         BLOCKEND  ---      ---       LVL=0

      0100060AH   BLOCK     CODE     ---       LVL=0
      0100060AH   LINE      CODE     ---       #432
      0100060AH   LINE      CODE     ---       #433
      0100060AH   LINE      CODE     ---       #434
      01000613H   LINE      CODE     ---       #435
      01000616H   LINE      CODE     ---       #436
      01000619H   LINE      CODE     ---       #437
      0100061CH   LINE      CODE     ---       #442
      0100061CH   LINE      CODE     ---       #443
      0100061CH   LINE      CODE     ---       #446
      01000625H   LINE      CODE     ---       #448
      01000629H   LINE      CODE     ---       #449
      01000629H   LINE      CODE     ---       #450
      0100062CH   LINE      CODE     ---       #451
      0100062CH   LINE      CODE     ---       #454
      0100062EH   LINE      CODE     ---       #457
      ---         BLOCKEND  ---      ---       LVL=0

      010006EAH   BLOCK     CODE     ---       LVL=0
      010006EAH   LINE      CODE     ---       #467
      010006EAH   LINE      CODE     ---       #468
      010006EAH   LINE      CODE     ---       #470
      010006EDH   LINE      CODE     ---       #473
      010006F0H   LINE      CODE     ---       #477
      010006F3H   LINE      CODE     ---       #478
      010006F6H   LINE      CODE     ---       #480
      010006F9H   LINE      CODE     ---       #483
      ---         BLOCKEND  ---      ---       LVL=0

      010006FAH   BLOCK     CODE     ---       LVL=0
      010006FAH   LINE      CODE     ---       #491
      010006FAH   LINE      CODE     ---       #492
      010006FAH   LINE      CODE     ---       #493
      010006FDH   LINE      CODE     ---       #496
      01000700H   LINE      CODE     ---       #499
      01000702H   LINE      CODE     ---       #501
      ---         BLOCKEND  ---      ---       LVL=0

      010006D8H   BLOCK     CODE     ---       LVL=0
      010006D8H   LINE      CODE     ---       #510
      010006D8H   LINE      CODE     ---       #513
      010006DBH   LINE      CODE     ---       #514
      010006DEH   LINE      CODE     ---       #517
      010006E1H   LINE      CODE     ---       #518
      010006E1H   LINE      CODE     ---       #519
      010006E4H   LINE      CODE     ---       #523
      010006E6H   LINE      CODE     ---       #525
      010006E6H   LINE      CODE     ---       #526
      010006E9H   LINE      CODE     ---       #530
      010006E9H   LINE      CODE     ---       #532
      ---         BLOCKEND  ---      ---       LVL=0

      ---         MODULE    ---      ---       ?C_INIT
      01000128H   PUBLIC    CODE     ---       ?C_START



*** WARNING L57: UNCALLED FUNCTION, IGNORED FOR OVERLAY PROCESS
    NAME:    _DELAY_US/LED

LX51 LINKER/LOCATER V4.66.66.0                                                        04/26/2020  17:08:39  PAGE 17


*** WARNING L57: UNCALLED FUNCTION, IGNORED FOR OVERLAY PROCESS
    NAME:    KEY_SCAN/LED

*** WARNING L57: UNCALLED FUNCTION, IGNORED FOR OVERLAY PROCESS
    NAME:    LED_BREATH_R/LED

*** WARNING L57: UNCALLED FUNCTION, IGNORED FOR OVERLAY PROCESS
    NAME:    LED_BREATH_G/LED

*** WARNING L57: UNCALLED FUNCTION, IGNORED FOR OVERLAY PROCESS
    NAME:    LED_BREATH_B/LED

*** WARNING L57: UNCALLED FUNCTION, IGNORED FOR OVERLAY PROCESS
    NAME:    LED_BREATH_RG/LED

*** WARNING L57: UNCALLED FUNCTION, IGNORED FOR OVERLAY PROCESS
    NAME:    LED_BREATH_GB/LED

*** WARNING L57: UNCALLED FUNCTION, IGNORED FOR OVERLAY PROCESS
    NAME:    LED_BREATH_RGB/LED

*** WARNING L57: UNCALLED FUNCTION, IGNORED FOR OVERLAY PROCESS
    NAME:    LED_BREATH_RB/LED

Program Size: data=56.0 xdata=0 const=0 code=1787
LX51 RUN COMPLETE.  9 WARNING(S),  0 ERROR(S)
