opt subtitle "Microchip Technology Omniscient Code Generator v1.45 (PRO mode) build 201711160504"

opt pagewidth 120

	opt pm

	processor	79F5139
opt include "C:\Edward_work_FILE\work_file\开发文件\中微开发工具\CMS_IDE_V2.03.18_Beta3\data\include\79f5139.cgen.inc"
clrc	macro
	bcf	3,0
	endm
clrz	macro
	bcf	3,2
	endm
setc	macro
	bsf	3,0
	endm
setz	macro
	bsf	3,2
	endm
skipc	macro
	btfss	3,0
	endm
skipz	macro
	btfss	3,2
	endm
skipnc	macro
	btfsc	3,0
	endm
skipnz	macro
	btfsc	3,2
	endm
	FNROOT	_main
	FNCALL	intlevel1,_Timer0_Isr
	global	intlevel1
	FNROOT	intlevel1
	global	_INTCON
psect	text0,local,class=CODE,delta=2,merge=1
global __ptext0
__ptext0:
_INTCON	set	11
	global	_PORTB
_PORTB	set	6
	global	_TMR0
_TMR0	set	1
	global	_T0IF
_T0IF	set	90
	global	_OSCCON
_OSCCON	set	143
	global	_TRISB
_TRISB	set	134
	global	_OPTION_REG
_OPTION_REG	set	129
; #config settings
	file	"Time.as"
	line	#
psect cinit,class=CODE,delta=2
global start_initialization
start_initialization:

global __initialization
__initialization:
psect cinit,class=CODE,delta=2,merge=1
global end_of_initialization,__end_of__initialization

;End of C runtime variable initialization code

end_of_initialization:
__end_of__initialization:
clrf status
ljmp _main	;jump to C main() function
psect	cstackCOMMON,class=COMMON,space=1,noexec
global __pcstackCOMMON
__pcstackCOMMON:
?_main:	; 1 bytes @ 0x0
?_Timer0_Isr:	; 1 bytes @ 0x0
??_Timer0_Isr:	; 1 bytes @ 0x0
	ds	2
??_main:	; 1 bytes @ 0x2
;!
;!Data Sizes:
;!    Strings     0
;!    Constant    0
;!    Data        0
;!    BSS         0
;!    Persistent  0
;!    Stack       0
;!
;!Auto Spaces:
;!    Space          Size  Autos    Used
;!    COMMON           14      2       2
;!    BANK0            80      0       0
;!    BANK1            80      0       0
;!    BANK3            88      0       0
;!    BANK2            80      0       0

;!
;!Pointer List with Targets:
;!
;!    None.


;!
;!Critical Paths under _main in COMMON
;!
;!    None.
;!
;!Critical Paths under _Timer0_Isr in COMMON
;!
;!    None.
;!
;!Critical Paths under _main in BANK0
;!
;!    None.
;!
;!Critical Paths under _Timer0_Isr in BANK0
;!
;!    None.
;!
;!Critical Paths under _main in BANK1
;!
;!    None.
;!
;!Critical Paths under _Timer0_Isr in BANK1
;!
;!    None.
;!
;!Critical Paths under _main in BANK3
;!
;!    None.
;!
;!Critical Paths under _Timer0_Isr in BANK3
;!
;!    None.
;!
;!Critical Paths under _main in BANK2
;!
;!    None.
;!
;!Critical Paths under _Timer0_Isr in BANK2
;!
;!    None.

;;
;;Main: autosize = 0, tempsize = 0, incstack = 0, save=0
;;

;!
;!Call Graph Tables:
;!
;! ---------------------------------------------------------------------------------
;! (Depth) Function   	        Calls       Base Space   Used Autos Params    Refs
;! ---------------------------------------------------------------------------------
;! (0) _main                                                 0     0      0       0
;! ---------------------------------------------------------------------------------
;! Estimated maximum stack depth 0
;! ---------------------------------------------------------------------------------
;! (Depth) Function   	        Calls       Base Space   Used Autos Params    Refs
;! ---------------------------------------------------------------------------------
;! (1) _Timer0_Isr                                           2     2      0       0
;!                                              0 COMMON     2     2      0
;! ---------------------------------------------------------------------------------
;! Estimated maximum stack depth 1
;! ---------------------------------------------------------------------------------
;!
;! Call Graph Graphs:
;!
;! _main (ROOT)
;!
;! _Timer0_Isr (ROOT)
;!

;! Address spaces:

;!Name               Size   Autos  Total    Cost      Usage
;!BITCOMMON            E      0       0       0        0.0%
;!NULL                 0      0       0       0        0.0%
;!CODE                 0      0       0       0        0.0%
;!COMMON               E      2       2       1       14.3%
;!BITSFR0              0      0       0       1        0.0%
;!SFR0                 0      0       0       1        0.0%
;!BITSFR1              0      0       0       2        0.0%
;!SFR1                 0      0       0       2        0.0%
;!STACK                0      0       0       2        0.0%
;!ABS                  0      0       0       3        0.0%
;!BITBANK0            50      0       0       4        0.0%
;!BITSFR3              0      0       0       4        0.0%
;!SFR3                 0      0       0       4        0.0%
;!BANK0               50      0       0       5        0.0%
;!BITSFR2              0      0       0       5        0.0%
;!SFR2                 0      0       0       5        0.0%
;!BITBANK1            50      0       0       6        0.0%
;!BANK1               50      0       0       7        0.0%
;!BITBANK3            58      0       0       8        0.0%
;!BANK3               58      0       0       9        0.0%
;!BITBANK2            50      0       0      10        0.0%
;!BANK2               50      0       0      11        0.0%
;!DATA                 0      0       0      12        0.0%

	global	_main

;; *************** function _main *****************
;; Defined at:
;;		line 21 in file "C:\Users\edwar\Desktop\CMS79F5118_5139程序\Timer_Demo\Timer0_Demo.c"
;; Parameters:    Size  Location     Type
;;		None
;; Auto vars:     Size  Location     Type
;;		None
;; Return value:  Size  Location     Type
;;                  1    wreg      void 
;; Registers used:
;;		wreg, status,2
;; Tracked objects:
;;		On entry : B00/0
;;		On exit  : 0/0
;;		Unchanged: 0/0
;; Data sizes:     COMMON   BANK0   BANK1   BANK3   BANK2
;;      Params:         0       0       0       0       0
;;      Locals:         0       0       0       0       0
;;      Temps:          0       0       0       0       0
;;      Totals:         0       0       0       0       0
;;Total ram usage:        0 bytes
;; Hardware stack levels required when called:    1
;; This function calls:
;;		Nothing
;; This function is called by:
;;		Startup code after reset
;; This function uses a non-reentrant model
;;
psect	maintext,global,class=CODE,delta=2,split=1,group=0
	file	"C:\Users\edwar\Desktop\CMS79F5118_5139程序\Timer_Demo\Timer0_Demo.c"
	line	21
global __pmaintext
__pmaintext:	;psect for function _main
psect	maintext
	file	"C:\Users\edwar\Desktop\CMS79F5118_5139程序\Timer_Demo\Timer0_Demo.c"
	line	21
	global	__size_of_main
	__size_of_main	equ	__end_of_main-_main
	
_main:	
;incstack = 0
	opt	stack 7
; Regs used in _main: [wreg+status,2]
	line	23
	
l1102:	
# 23 "C:\Users\edwar\Desktop\CMS79F5118_5139程序\Timer_Demo\Timer0_Demo.c"
nop ;# 
	line	24
# 24 "C:\Users\edwar\Desktop\CMS79F5118_5139程序\Timer_Demo\Timer0_Demo.c"
clrwdt ;# 
psect	maintext
	line	26
	
l1104:	
;Timer0_Demo.c: 26: OSCCON = 0x71;
	movlw	low(071h)
	bsf	status, 5	;RP0=1, select bank1
	bcf	status, 6	;RP1=0, select bank1
	movwf	(143)^080h	;volatile
	line	29
;Timer0_Demo.c: 29: OPTION_REG = 0xD0;
	movlw	low(0D0h)
	movwf	(129)^080h	;volatile
	line	30
;Timer0_Demo.c: 30: TMR0 = 131;
	movlw	low(083h)
	bcf	status, 5	;RP0=0, select bank0
	movwf	(1)	;volatile
	line	31
;Timer0_Demo.c: 31: INTCON = 0xA0;
	movlw	low(0A0h)
	movwf	(11)	;volatile
	line	34
	
l1106:	
;Timer0_Demo.c: 34: TRISB = 0x00;
	bsf	status, 5	;RP0=1, select bank1
	clrf	(134)^080h	;volatile
	line	35
	
l1108:	
;Timer0_Demo.c: 35: PORTB = 0x00;
	bcf	status, 5	;RP0=0, select bank0
	clrf	(6)	;volatile
	line	37
;Timer0_Demo.c: 37: while(1)
	
l717:	
	line	39
# 39 "C:\Users\edwar\Desktop\CMS79F5118_5139程序\Timer_Demo\Timer0_Demo.c"
clrwdt ;# 
psect	maintext
	goto	l717
	global	start
	ljmp	start
	opt stack 0
	line	41
GLOBAL	__end_of_main
	__end_of_main:
	signat	_main,89
	global	_Timer0_Isr

;; *************** function _Timer0_Isr *****************
;; Defined at:
;;		line 51 in file "C:\Users\edwar\Desktop\CMS79F5118_5139程序\Timer_Demo\Timer0_Demo.c"
;; Parameters:    Size  Location     Type
;;		None
;; Auto vars:     Size  Location     Type
;;		None
;; Return value:  Size  Location     Type
;;                  1    wreg      void 
;; Registers used:
;;		wreg, status,2, status,0
;; Tracked objects:
;;		On entry : 0/0
;;		On exit  : 0/0
;;		Unchanged: 0/0
;; Data sizes:     COMMON   BANK0   BANK1   BANK3   BANK2
;;      Params:         0       0       0       0       0
;;      Locals:         0       0       0       0       0
;;      Temps:          2       0       0       0       0
;;      Totals:         2       0       0       0       0
;;Total ram usage:        2 bytes
;; Hardware stack levels used:    1
;; This function calls:
;;		Nothing
;; This function is called by:
;;		Interrupt level 1
;; This function uses a non-reentrant model
;;
psect	text1,local,class=CODE,delta=2,merge=1,group=0
	line	51
global __ptext1
__ptext1:	;psect for function _Timer0_Isr
psect	text1
	file	"C:\Users\edwar\Desktop\CMS79F5118_5139程序\Timer_Demo\Timer0_Demo.c"
	line	51
	global	__size_of_Timer0_Isr
	__size_of_Timer0_Isr	equ	__end_of_Timer0_Isr-_Timer0_Isr
	
_Timer0_Isr:	
;incstack = 0
	opt	stack 7
; Regs used in _Timer0_Isr: [wreg+status,2+status,0]
psect	intentry,class=CODE,delta=2
global __pintentry
__pintentry:
global interrupt_function
interrupt_function:
	global saved_w
	saved_w	set	btemp+0
	movwf	saved_w
	swapf	status,w
	movwf	(??_Timer0_Isr+0)
	movf	pclath,w
	movwf	(??_Timer0_Isr+1)
	ljmp	_Timer0_Isr
psect	text1
	line	53
	
i1l1110:	
;Timer0_Demo.c: 53: if(T0IF)
	btfss	(90/8),(90)&7	;volatile
	goto	u1_21
	goto	u1_20
u1_21:
	goto	i1l726
u1_20:
	line	56
	
i1l1112:	
;Timer0_Demo.c: 54: {
;Timer0_Demo.c: 56: TMR0 += 131;
	movlw	low(083h)
	bcf	status, 5	;RP0=0, select bank0
	bcf	status, 6	;RP1=0, select bank0
	addwf	(1),f	;volatile
	line	59
	
i1l1114:	
;Timer0_Demo.c: 59: T0IF = 0;
	bcf	(90/8),(90)&7	;volatile
	line	61
;Timer0_Demo.c: 61: PORTB ^= 0xff;
	movlw	low(0FFh)
	xorwf	(6),f	;volatile
	line	63
	
i1l726:	
	movf	(??_Timer0_Isr+1),w
	movwf	pclath
	swapf	(??_Timer0_Isr+0)^0FFFFFF80h,w
	movwf	status
	swapf	saved_w,f
	swapf	saved_w,w
	retfie
	opt stack 0
GLOBAL	__end_of_Timer0_Isr
	__end_of_Timer0_Isr:
	signat	_Timer0_Isr,89
global	___latbits
___latbits	equ	1
	global	btemp
	btemp set 07Eh

	DABS	1,126,2	;btemp
	global	wtemp0
	wtemp0 set btemp+0
	end
