

HI-TECH Software PIC PRO Macro Assembler V9.83 build 10920 
                                                                                               Fri Jul 12 08:23:52 2019

HI-TECH Software Omniscient Code Generator (PRO mode) build 10920
     1                           	processor	SC8P1712D
     2                           	opt	pw 120
     3                           	opt	pm
     4                           	psect	text230,local,class=CODE,delta=2
     5                           	psect	cinit,global,class=CODE,delta=2
     6                           	psect	bitbssCOMMON,global,bit,class=COMMON,space=1,delta=1
     7                           	psect	bssCOMMON,global,class=COMMON,space=1,delta=1
     8                           	psect	bssBANK0,global,class=BANK0,space=1,delta=1
     9                           	psect	cstackCOMMON,global,class=COMMON,space=1,delta=1
    10                           	psect	cstackBANK0,global,class=BANK0,space=1,delta=1
    11                           	psect	maintext,global,class=CODE,delta=2
    12                           	psect	text231,local,class=CODE,delta=2
    13                           	psect	text232,local,class=CODE,delta=2
    14                           	psect	text233,local,class=CODE,delta=2
    15                           	psect	text234,local,class=CODE,delta=2
    16                           	psect	text235,local,class=CODE,delta=2
    17                           	psect	text236,local,class=CODE,delta=2
    18                           	psect	intentry,global,class=CODE,delta=2
    19                           	psect	text237,local,class=CODE,delta=2
    20                           	psect	pa_nodes,global,class=CODE,delta=2
    21                           	dabs	1,0x7E,2
    22  000A                     
    23                           	psect	text230
    24  0000                     __ptext230:	
    25  000B                     _INTCON	set	11
    26  000C                     _PIR1	set	12
    27  0006                     _PORTB	set	6
    28  0012                     _T2CON	set	18
    29  0028                     _RA0	set	40
    30  0029                     _RA1	set	41
    31  0061                     _TMR2IF	set	97
    32  008F                     _OSCCON	set	143
    33  008C                     _PIE1	set	140
    34  0092                     _PR2	set	146
    35  0086                     _TRISB	set	134
    36  0461                     _TMR2IE	set	1121
    37  0428                     _TRISA0	set	1064
    38  0429                     _TRISA1	set	1065
    39                           
    40                           	psect	cinit
    41  00AC                     start_initialization:	
    42                           
    43                           ; Clear objects allocated to BITCOMMON
    44  00AC  01FB               	clrf	(__pbitbssCOMMON/(0+8))& (0+127)
    45                           
    46                           ; Clear objects allocated to COMMON
    47  00AD  01F0               	clrf	__pbssCOMMON& (0+127)
    48  00AE  01F1               	clrf	(__pbssCOMMON+1)& (0+127)
    49  00AF  01F2               	clrf	(__pbssCOMMON+2)& (0+127)
    50  00B0  01F3               	clrf	(__pbssCOMMON+3)& (0+127)
    51  00B1  01F4               	clrf	(__pbssCOMMON+4)& (0+127)
    52  00B2  01F5               	clrf	(__pbssCOMMON+5)& (0+127)
    53                           
    54                           ; Clear objects allocated to BANK0
    55  00B3  01A0               	clrf	__pbssBANK0& (0+127)
    56  00B4  01A1               	clrf	(__pbssBANK0+1)& (0+127)
    57  00B5  01A2               	clrf	(__pbssBANK0+2)& (0+127)
    58  00B6  01A3               	clrf	(__pbssBANK0+3)& (0+127)
    59  00B7  01A4               	clrf	(__pbssBANK0+4)& (0+127)
    60  00B8                     end_of_initialization:	
    61                           ;End of C runtime variable initialization code
    62                           
    63  00B8  0183               	clrf	3
    64  00B9  280B               	ljmp	_main	;jump to C main() function
    65                           
    66                           	psect	bitbssCOMMON
    67  03D8                     __pbitbssCOMMON:	
    68  03D8                     _B_MainLoop:	
    69  03D8                     	ds	1
    70                           
    71                           	psect	bssCOMMON
    72  0070                     __pbssCOMMON:	
    73  0070                     _Recebuffer:	
    74  0070                     	ds	5
    75  0075                     ISR@tcount:	
    76  0075                     	ds	1
    77                           
    78                           	psect	bssBANK0
    79  0020                     __pbssBANK0:	
    80  0020                     _Sendbuffer:	
    81  0020                     	ds	5
    82                           
    83                           	psect	cstackCOMMON
    84  0076                     __pcstackCOMMON:	
    85  0076                     ?_I2C_WriteStart:	
    86  0076                     ?_I2C_WriteStop:	
    87                           ; 0 bytes @ 0x0
    88                           
    89  0076                     ?_I2C_WaitMoment:	
    90                           ; 0 bytes @ 0x0
    91                           
    92  0076                     ?_main:	
    93                           ; 0 bytes @ 0x0
    94                           
    95  0076                     ?_ISR:	
    96                           ; 0 bytes @ 0x0
    97                           
    98  0076                     ??_ISR:	
    99                           ; 0 bytes @ 0x0
   100                           
   101  0076                     ?_I2C_Write1Byte:	
   102                           ; 0 bytes @ 0x0
   103                           
   104  0076                     ?_I2C_Read1Byte:	
   105                           ; 1 bytes @ 0x0
   106                           
   107                           
   108                           ; 1 bytes @ 0x0
   109  0076                     	ds	2
   110  0078                     ??_I2C_WriteStart:	
   111  0078                     ??_I2C_Write1Byte:	
   112                           ; 0 bytes @ 0x2
   113                           
   114  0078                     ??_I2C_WriteStop:	
   115                           ; 0 bytes @ 0x2
   116                           
   117  0078                     ??_I2C_Read1Byte:	
   118                           ; 0 bytes @ 0x2
   119                           
   120  0078                     ??_I2C_WaitMoment:	
   121                           ; 0 bytes @ 0x2
   122                           
   123  0078                     I2C_Write1Byte@data:	
   124                           ; 0 bytes @ 0x2
   125                           
   126  0078                     I2C_Read1Byte@ack:	
   127                           ; 1 bytes @ 0x2
   128                           
   129                           
   130                           ; 1 bytes @ 0x2
   131  0078                     	ds	1
   132  0079                     I2C_Write1Byte@i:	
   133  0079                     I2C_Read1Byte@data:	
   134                           ; 1 bytes @ 0x3
   135                           
   136                           
   137                           ; 1 bytes @ 0x3
   138  0079                     	ds	1
   139  007A                     I2C_Read1Byte@i:	
   140                           
   141                           ; 1 bytes @ 0x4
   142  007A                     	ds	1
   143  007B                     ??_main:	
   144                           
   145                           	psect	cstackBANK0
   146  0025                     __pcstackBANK0:	
   147                           ; 0 bytes @ 0x5
   148                           
   149  0025                     main@time1s:	
   150                           
   151                           ; 1 bytes @ 0x0
   152  0025                     	ds	1
   153                           
   154                           	psect	maintext
   155  000B                     __pmaintext:	
   156 ;;Data sizes: Strings 0, constant 0, data 0, bss 11, persistent 0 stack 0
   157 ;;Auto spaces:   Size  Autos    Used
   158 ;; COMMON          14      5      12
   159 ;; BANK0           80      1       6
   160 ;; BANK1           80      0       0
   161 ;;
   162 ;; Pointer list with targets:
   163 ;;
   164 ;; Critical Paths under _main in COMMON
   165 ;;
   166 ;;   _main->_I2C_Read1Byte
   167 ;;
   168 ;; Critical Paths under _ISR in COMMON
   169 ;;
   170 ;;   None.
   171 ;;
   172 ;; Critical Paths under _main in BANK0
   173 ;;
   174 ;;   None.
   175 ;;
   176 ;; Critical Paths under _ISR in BANK0
   177 ;;
   178 ;;   None.
   179 ;;
   180 ;; Critical Paths under _main in BANK1
   181 ;;
   182 ;;   None.
   183 ;;
   184 ;; Critical Paths under _ISR in BANK1
   185 ;;
   186 ;;   None.
   187 ;;
   188 ;;Main: autosize = 0, tempsize = 0, incstack = 0, save=0
   189 ;;
   190 ;;
   191 ;;Call Graph Tables:
   192 ;;
   193 ;; ---------------------------------------------------------------------------------
   194 ;; (Depth) Function   	        Calls       Base Space   Used Autos Params    Refs
   195 ;; ---------------------------------------------------------------------------------
   196 ;; (0) _main                                                 1     1      0     254
   197 ;;                                              0 BANK0      1     1      0
   198 ;;                     _I2C_WriteStart
   199 ;;                     _I2C_Write1Byte
   200 ;;                      _I2C_WriteStop
   201 ;;                      _I2C_Read1Byte
   202 ;; ---------------------------------------------------------------------------------
   203 ;; (1) _I2C_Read1Byte                                        3     3      0     142
   204 ;;                                              2 COMMON     3     3      0
   205 ;;                     _I2C_WaitMoment
   206 ;; ---------------------------------------------------------------------------------
   207 ;; (1) _I2C_WriteStop                                        0     0      0       0
   208 ;;                     _I2C_WaitMoment
   209 ;; ---------------------------------------------------------------------------------
   210 ;; (1) _I2C_Write1Byte                                       2     2      0      78
   211 ;;                                              2 COMMON     2     2      0
   212 ;;                     _I2C_WaitMoment
   213 ;; ---------------------------------------------------------------------------------
   214 ;; (1) _I2C_WriteStart                                       0     0      0       0
   215 ;;                     _I2C_WaitMoment
   216 ;; ---------------------------------------------------------------------------------
   217 ;; (2) _I2C_WaitMoment                                       0     0      0       0
   218 ;; ---------------------------------------------------------------------------------
   219 ;; Estimated maximum stack depth 2
   220 ;; ---------------------------------------------------------------------------------
   221 ;; (Depth) Function   	        Calls       Base Space   Used Autos Params    Refs
   222 ;; ---------------------------------------------------------------------------------
   223 ;; (3) _ISR                                                  2     2      0       0
   224 ;;                                              0 COMMON     2     2      0
   225 ;; ---------------------------------------------------------------------------------
   226 ;; Estimated maximum stack depth 3
   227 ;; ---------------------------------------------------------------------------------
   228 ;; Call Graph Graphs:
   229 ;; _main (ROOT)
   230 ;;   _I2C_WriteStart
   231 ;;     _I2C_WaitMoment
   232 ;;   _I2C_Write1Byte
   233 ;;     _I2C_WaitMoment
   234 ;;   _I2C_WriteStop
   235 ;;     _I2C_WaitMoment
   236 ;;   _I2C_Read1Byte
   237 ;;     _I2C_WaitMoment
   238 ;;
   239 ;; _ISR (ROOT)
   240 ;;
   241 ;; Address spaces:
   242 ;;Name               Size   Autos  Total    Cost      Usage
   243 ;;BITCOMMON            E      0       1       0        7.1%
   244 ;;NULL                 0      0       0       0        0.0%
   245 ;;CODE                 0      0       0       0        0.0%
   246 ;;COMMON               E      5       C       1       85.7%
   247 ;;BITSFR0              0      0       0       1        0.0%
   248 ;;SFR0                 0      0       0       1        0.0%
   249 ;;BITSFR1              0      0       0       2        0.0%
   250 ;;SFR1                 0      0       0       2        0.0%
   251 ;;STACK                0      0       2       2        0.0%
   252 ;;BITBANK0            50      0       0       3        0.0%
   253 ;;BANK0               50      1       6       4        7.5%
   254 ;;BITBANK1            50      0       0       5        0.0%
   255 ;;BANK1               50      0       0       6        0.0%
   256 ;;ABS                  0      0      12       7        0.0%
   257 ;;DATA                 0      0      14       8        0.0%
   258                           
   259                           
   260 ;; *************** function _main *****************
   261 ;; Defined at:
   262 ;;		line 31 in file "F:\TEST_CODE\SC8P171XD_C\SC8P171XD_IIC\SC8P171XD_IIC_Soft_Master.c"
   263 ;; Parameters:    Size  Location     Type
   264 ;;		None
   265 ;; Auto vars:     Size  Location     Type
   266 ;;  time1s          1    0[BANK0 ] unsigned char 
   267 ;; Return value:  Size  Location     Type
   268 ;;		None               void
   269 ;; Registers used:
   270 ;;		wreg, status,2, status,0, pclath, cstack
   271 ;; Tracked objects:
   272 ;;		On entry : 17F/0
   273 ;;		On exit  : 0/0
   274 ;;		Unchanged: 0/0
   275 ;; Data sizes:     COMMON   BANK0   BANK1
   276 ;;      Params:         0       0       0
   277 ;;      Locals:         0       1       0
   278 ;;      Temps:          0       0       0
   279 ;;      Totals:         0       1       0
   280 ;;Total ram usage:        1 bytes
   281 ;; Hardware stack levels required when called:    3
   282 ;; This function calls:
   283 ;;		_I2C_WriteStart
   284 ;;		_I2C_Write1Byte
   285 ;;		_I2C_WriteStop
   286 ;;		_I2C_Read1Byte
   287 ;; This function is called by:
   288 ;;		Startup code after reset
   289 ;; This function uses a non-reentrant model
   290 ;;
   291  000B                     _main:	
   292                           
   293                           ;SC8P171XD_IIC_Soft_Master.c: 32: _nop();
   294                           
   295                           ; Regs used in _main: [wreg+status,2+status,0+pclath+cstack]
   296  000B  0000               	nop
   297  000C  0064               	clrwdt	;#
   298                           
   299                           ;SC8P171XD_IIC_Soft_Master.c: 34: OSCCON = 0x70;
   300  000D  3070               	movlw	112
   301  000E  1683               	bsf	3,5	;RP0=1, select bank1
   302  000F  008F               	movwf	15	;volatile
   303                           
   304                           ;SC8P171XD_IIC_Soft_Master.c: 36: INTCON = 0;
   305  0010  018B               	clrf	11	;volatile
   306                           
   307                           ;SC8P171XD_IIC_Soft_Master.c: 37: TRISB = 0;
   308  0011  0186               	clrf	6	;volatile
   309                           
   310                           ;SC8P171XD_IIC_Soft_Master.c: 38: PORTB = 0;
   311  0012  1283               	bcf	3,5	;RP0=0, select bank0
   312  0013  0186               	clrf	6	;volatile
   313                           
   314                           ;SC8P171XD_IIC_Soft_Master.c: 40: PIR1 = 0;
   315  0014  018C               	clrf	12	;volatile
   316                           
   317                           ;SC8P171XD_IIC_Soft_Master.c: 41: PIE1 = 0;
   318  0015  1683               	bsf	3,5	;RP0=1, select bank1
   319  0016  018C               	clrf	12	;volatile
   320                           
   321                           ;SC8P171XD_IIC_Soft_Master.c: 44: PR2 = 250;
   322  0017  30FA               	movlw	250
   323  0018  0092               	movwf	18	;volatile
   324                           
   325                           ;SC8P171XD_IIC_Soft_Master.c: 45: T2CON = 4;
   326  0019  3004               	movlw	4
   327  001A  1283               	bcf	3,5	;RP0=0, select bank0
   328  001B  0092               	movwf	18	;volatile
   329  001C  30C0               	movlw	192
   330                           
   331                           ;SC8P171XD_IIC_Soft_Master.c: 46: TMR2IE = 1;
   332  001D  1683               	bsf	3,5	;RP0=1, select bank1
   333  001E  148C               	bsf	12,1
   334                           
   335                           ;SC8P171XD_IIC_Soft_Master.c: 48: INTCON = 0XC0;
   336  001F  008B               	movwf	11	;volatile
   337  0020                     l1255:	
   338                           
   339                           ;SC8P171XD_IIC_Soft_Master.c: 53: {
   340                           ;SC8P171XD_IIC_Soft_Master.c: 54: if(B_MainLoop)
   341  0020  1C7B               	btfss	_B_MainLoop/(0+8),_B_MainLoop& (0+7)
   342  0021  2820               	goto	l1255
   343                           
   344                           ;SC8P171XD_IIC_Soft_Master.c: 55: {
   345                           ;SC8P171XD_IIC_Soft_Master.c: 56: B_MainLoop = 0;
   346  0022  107B               	bcf	_B_MainLoop/(0+8),_B_MainLoop& (0+7)
   347  0023  0064               	clrwdt	;#
   348                           
   349                           ;SC8P171XD_IIC_Soft_Master.c: 59: if(++time1s >= 200)
   350  0024  30C8               	movlw	200
   351  0025  1283               	bcf	3,5	;RP0=0, select bank0
   352  0026  0AA5               	incf	main@time1s,f
   353  0027  0225               	subwf	main@time1s,w
   354  0028  1C03               	skipc
   355  0029  2820               	goto	l1255
   356                           
   357                           ;SC8P171XD_IIC_Soft_Master.c: 60: {
   358                           ;SC8P171XD_IIC_Soft_Master.c: 61: time1s = 0;
   359  002A  01A5               	clrf	main@time1s
   360                           
   361                           ;SC8P171XD_IIC_Soft_Master.c: 62: Sendbuffer[0]++;
   362  002B  0AA0               	incf	_Sendbuffer,f	;volatile
   363                           
   364                           ;SC8P171XD_IIC_Soft_Master.c: 65: I2C_WriteStart();
   365  002C  20C8               	fcall	_I2C_WriteStart
   366                           
   367                           ;SC8P171XD_IIC_Soft_Master.c: 66: I2C_Write1Byte(0xa0);
   368  002D  30A0               	movlw	160
   369  002E  207A               	fcall	_I2C_Write1Byte
   370                           
   371                           ;SC8P171XD_IIC_Soft_Master.c: 67: I2C_Write1Byte(0x4);
   372  002F  3004               	movlw	4
   373  0030  207A               	fcall	_I2C_Write1Byte
   374                           
   375                           ;SC8P171XD_IIC_Soft_Master.c: 68: I2C_Write1Byte(Sendbuffer[0]);
   376  0031  1283               	bcf	3,5	;RP0=0, select bank0
   377  0032  0820               	movf	_Sendbuffer,w	;volatile
   378  0033  207A               	fcall	_I2C_Write1Byte
   379                           
   380                           ;SC8P171XD_IIC_Soft_Master.c: 69: I2C_Write1Byte(~Sendbuffer[0]);
   381  0034  1283               	bcf	3,5	;RP0=0, select bank0
   382  0035  0920               	comf	_Sendbuffer,w	;volatile
   383  0036  207A               	fcall	_I2C_Write1Byte
   384                           
   385                           ;SC8P171XD_IIC_Soft_Master.c: 70: I2C_Write1Byte(0x3);
   386  0037  3003               	movlw	3
   387  0038  207A               	fcall	_I2C_Write1Byte
   388                           
   389                           ;SC8P171XD_IIC_Soft_Master.c: 71: I2C_WriteStop();
   390  0039  20BA               	fcall	_I2C_WriteStop
   391                           
   392                           ;SC8P171XD_IIC_Soft_Master.c: 74: I2C_WriteStart();
   393  003A  20C8               	fcall	_I2C_WriteStart
   394                           
   395                           ;SC8P171XD_IIC_Soft_Master.c: 75: I2C_Write1Byte(0xa1);
   396  003B  30A1               	movlw	161
   397  003C  207A               	fcall	_I2C_Write1Byte
   398                           
   399                           ;SC8P171XD_IIC_Soft_Master.c: 76: Recebuffer[0] = I2C_Read1Byte(0);
   400  003D  3000               	movlw	0
   401  003E  204B               	fcall	_I2C_Read1Byte
   402  003F  00F0               	movwf	_Recebuffer	;volatile
   403                           
   404                           ;SC8P171XD_IIC_Soft_Master.c: 77: Recebuffer[1] = I2C_Read1Byte(0);
   405  0040  3000               	movlw	0
   406  0041  204B               	fcall	_I2C_Read1Byte
   407  0042  00F1               	movwf	_Recebuffer+1	;volatile
   408                           
   409                           ;SC8P171XD_IIC_Soft_Master.c: 78: Recebuffer[2] = I2C_Read1Byte(0);
   410  0043  3000               	movlw	0
   411  0044  204B               	fcall	_I2C_Read1Byte
   412  0045  00F2               	movwf	_Recebuffer+2	;volatile
   413                           
   414                           ;SC8P171XD_IIC_Soft_Master.c: 79: Recebuffer[3] = I2C_Read1Byte(1);
   415  0046  3001               	movlw	1
   416  0047  204B               	fcall	_I2C_Read1Byte
   417  0048  00F3               	movwf	_Recebuffer+3	;volatile
   418                           
   419                           ;SC8P171XD_IIC_Soft_Master.c: 80: I2C_WriteStop();
   420  0049  20BA               	fcall	_I2C_WriteStop
   421  004A  2820               	goto	l1255
   422  004B                     __end_of_main:	
   423                           
   424                           	psect	text231
   425  004B                     __ptext231:	
   426 ;; =============== function _main ends ============
   427                           
   428                           
   429 ;; *************** function _I2C_Read1Byte *****************
   430 ;; Defined at:
   431 ;;		line 194 in file "F:\TEST_CODE\SC8P171XD_C\SC8P171XD_IIC\SC8P171XD_IIC_Soft_Master.c"
   432 ;; Parameters:    Size  Location     Type
   433 ;;  ack             1    wreg     unsigned char 
   434 ;; Auto vars:     Size  Location     Type
   435 ;;  ack             1    2[COMMON] unsigned char 
   436 ;;  i               1    4[COMMON] unsigned char 
   437 ;;  data            1    3[COMMON] unsigned char 
   438 ;; Return value:  Size  Location     Type
   439 ;;                  1    wreg      unsigned char 
   440 ;; Registers used:
   441 ;;		wreg, status,2, status,0, pclath, cstack
   442 ;; Tracked objects:
   443 ;;		On entry : 0/20
   444 ;;		On exit  : 20/0
   445 ;;		Unchanged: FFE00/0
   446 ;; Data sizes:     COMMON   BANK0   BANK1
   447 ;;      Params:         0       0       0
   448 ;;      Locals:         3       0       0
   449 ;;      Temps:          0       0       0
   450 ;;      Totals:         3       0       0
   451 ;;Total ram usage:        3 bytes
   452 ;; Hardware stack levels used:    1
   453 ;; Hardware stack levels required when called:    2
   454 ;; This function calls:
   455 ;;		_I2C_WaitMoment
   456 ;; This function is called by:
   457 ;;		_main
   458 ;; This function uses a non-reentrant model
   459 ;;
   460  004B                     _I2C_Read1Byte:	
   461                           
   462                           ; Regs used in _I2C_Read1Byte: [wreg+status,2+status,0+pclath+cstack]
   463                           ;I2C_Read1Byte@ack stored from wreg
   464  004B  00F8               	movwf	I2C_Read1Byte@ack
   465                           
   466                           ;SC8P171XD_IIC_Soft_Master.c: 195: unsigned char i,data;
   467                           ;SC8P171XD_IIC_Soft_Master.c: 196: TRISA1 = 1;
   468  004C  1683               	bsf	3,5	;RP0=1, select bank1
   469  004D  1485               	bsf	5,1
   470                           
   471                           ;SC8P171XD_IIC_Soft_Master.c: 197: TRISA0 = 1;
   472  004E  1405               	bsf	5,0
   473                           
   474                           ;SC8P171XD_IIC_Soft_Master.c: 198: I2C_WaitMoment();
   475  004F  20D6               	fcall	_I2C_WaitMoment
   476  0050                     l456:	
   477                           ;SC8P171XD_IIC_Soft_Master.c: 200: while(!RA0);
   478                           
   479  0050  1283               	bcf	3,5	;RP0=0, select bank0
   480  0051  1C05               	btfss	5,0
   481  0052  2850               	goto	l456
   482                           
   483                           ;SC8P171XD_IIC_Soft_Master.c: 201: TRISA0 = 0;
   484  0053  1683               	bsf	3,5	;RP0=1, select bank1
   485  0054  1005               	bcf	5,0
   486                           
   487                           ;SC8P171XD_IIC_Soft_Master.c: 202: RA0 = 0;
   488  0055  1283               	bcf	3,5	;RP0=0, select bank0
   489  0056  1005               	bcf	5,0
   490                           
   491                           ;SC8P171XD_IIC_Soft_Master.c: 203: I2C_WaitMoment();
   492  0057  20D6               	fcall	_I2C_WaitMoment
   493                           
   494                           ;SC8P171XD_IIC_Soft_Master.c: 205: data <<= 1;
   495  0058  1003               	clrc
   496  0059  0DF9               	rlf	I2C_Read1Byte@data,f
   497                           
   498                           ;SC8P171XD_IIC_Soft_Master.c: 206: if(RA1) data |= 0x1;
   499  005A  1283               	bcf	3,5	;RP0=0, select bank0
   500  005B  1885               	btfsc	5,1
   501  005C  1479               	bsf	I2C_Read1Byte@data,0
   502                           
   503                           ;SC8P171XD_IIC_Soft_Master.c: 209: for(i = 0; i < 7; i++)
   504  005D  01FA               	clrf	I2C_Read1Byte@i
   505  005E                     l460:	
   506                           
   507                           ;SC8P171XD_IIC_Soft_Master.c: 210: {
   508                           ;SC8P171XD_IIC_Soft_Master.c: 211: RA0 = 1;
   509  005E  1405               	bsf	5,0
   510                           
   511                           ;SC8P171XD_IIC_Soft_Master.c: 212: data <<= 1;
   512  005F  1003               	clrc
   513  0060  0DF9               	rlf	I2C_Read1Byte@data,f
   514                           
   515                           ;SC8P171XD_IIC_Soft_Master.c: 213: if(RA1) data |= 0x1;
   516  0061  1885               	btfsc	5,1
   517  0062  1479               	bsf	I2C_Read1Byte@data,0
   518  0063  3007               	movlw	7
   519                           
   520                           ;SC8P171XD_IIC_Soft_Master.c: 214: RA0 = 0;
   521  0064  1005               	bcf	5,0
   522  0065  0AFA               	incf	I2C_Read1Byte@i,f
   523  0066  027A               	subwf	I2C_Read1Byte@i,w
   524  0067  1C03               	skipc
   525  0068  285E               	goto	l460
   526                           
   527                           ;SC8P171XD_IIC_Soft_Master.c: 215: }
   528                           ;SC8P171XD_IIC_Soft_Master.c: 217: TRISA1 = 0;
   529  0069  1683               	bsf	3,5	;RP0=1, select bank1
   530  006A  1085               	bcf	5,1
   531                           
   532                           ;SC8P171XD_IIC_Soft_Master.c: 219: if(ack)RA1 = 1;
   533  006B  0878               	movf	I2C_Read1Byte@ack,w
   534  006C  1283               	bcf	3,5	;RP0=0, select bank0
   535  006D  1903               	btfsc	3,2
   536  006E  2871               	goto	L1
   537  006F  1485               	bsf	5,1
   538  0070  2872               	goto	l1223
   539  0071                     L1:	
   540                           ;SC8P171XD_IIC_Soft_Master.c: 220: else RA1 = 0;
   541                           
   542  0071  1085               	bcf	5,1
   543  0072                     l1223:	
   544                           
   545                           ;SC8P171XD_IIC_Soft_Master.c: 222: I2C_WaitMoment();
   546  0072  20D6               	fcall	_I2C_WaitMoment
   547                           
   548                           ;SC8P171XD_IIC_Soft_Master.c: 223: RA0 = 1;
   549  0073  1283               	bcf	3,5	;RP0=0, select bank0
   550  0074  1405               	bsf	5,0
   551                           
   552                           ;SC8P171XD_IIC_Soft_Master.c: 224: I2C_WaitMoment();
   553  0075  20D6               	fcall	_I2C_WaitMoment
   554                           
   555                           ;SC8P171XD_IIC_Soft_Master.c: 225: RA0 = 0;
   556  0076  1283               	bcf	3,5	;RP0=0, select bank0
   557  0077  1005               	bcf	5,0
   558                           
   559                           ;SC8P171XD_IIC_Soft_Master.c: 226: return data;
   560  0078  0879               	movf	I2C_Read1Byte@data,w
   561  0079  0008               	return
   562  007A                     __end_of_I2C_Read1Byte:	
   563                           
   564                           	psect	text232
   565  00BA                     __ptext232:	
   566 ;; =============== function _I2C_Read1Byte ends ============
   567                           
   568                           
   569 ;; *************** function _I2C_WriteStop *****************
   570 ;; Defined at:
   571 ;;		line 135 in file "F:\TEST_CODE\SC8P171XD_C\SC8P171XD_IIC\SC8P171XD_IIC_Soft_Master.c"
   572 ;; Parameters:    Size  Location     Type
   573 ;;		None
   574 ;; Auto vars:     Size  Location     Type
   575 ;;		None
   576 ;; Return value:  Size  Location     Type
   577 ;;		None               void
   578 ;; Registers used:
   579 ;;		status,2, status,0, pclath, cstack
   580 ;; Tracked objects:
   581 ;;		On entry : 0/20
   582 ;;		On exit  : 0/0
   583 ;;		Unchanged: FFE00/0
   584 ;; Data sizes:     COMMON   BANK0   BANK1
   585 ;;      Params:         0       0       0
   586 ;;      Locals:         0       0       0
   587 ;;      Temps:          0       0       0
   588 ;;      Totals:         0       0       0
   589 ;;Total ram usage:        0 bytes
   590 ;; Hardware stack levels used:    1
   591 ;; Hardware stack levels required when called:    2
   592 ;; This function calls:
   593 ;;		_I2C_WaitMoment
   594 ;; This function is called by:
   595 ;;		_main
   596 ;; This function uses a non-reentrant model
   597 ;;
   598  00BA                     _I2C_WriteStop:	
   599                           
   600                           ;SC8P171XD_IIC_Soft_Master.c: 136: TRISA1 = 0;
   601                           
   602                           ; Regs used in _I2C_WriteStop: [status,2+status,0+pclath+cstack]
   603  00BA  1683               	bsf	3,5	;RP0=1, select bank1
   604  00BB  1085               	bcf	5,1
   605                           
   606                           ;SC8P171XD_IIC_Soft_Master.c: 137: TRISA0 = 0;
   607  00BC  1005               	bcf	5,0
   608                           
   609                           ;SC8P171XD_IIC_Soft_Master.c: 138: I2C_WaitMoment();
   610  00BD  20D6               	fcall	_I2C_WaitMoment
   611                           
   612                           ;SC8P171XD_IIC_Soft_Master.c: 140: RA1 = 0;
   613  00BE  1283               	bcf	3,5	;RP0=0, select bank0
   614  00BF  1085               	bcf	5,1
   615                           
   616                           ;SC8P171XD_IIC_Soft_Master.c: 141: RA0 = 1;
   617  00C0  1405               	bsf	5,0
   618                           
   619                           ;SC8P171XD_IIC_Soft_Master.c: 142: I2C_WaitMoment();
   620  00C1  20D6               	fcall	_I2C_WaitMoment
   621                           
   622                           ;SC8P171XD_IIC_Soft_Master.c: 143: RA1 = 1;
   623  00C2  1283               	bcf	3,5	;RP0=0, select bank0
   624  00C3  1485               	bsf	5,1
   625                           
   626                           ;SC8P171XD_IIC_Soft_Master.c: 145: I2C_WaitMoment();
   627  00C4  20D6               	fcall	_I2C_WaitMoment
   628                           
   629                           ;SC8P171XD_IIC_Soft_Master.c: 146: RA0 = 0;
   630  00C5  1283               	bcf	3,5	;RP0=0, select bank0
   631  00C6  1005               	bcf	5,0
   632                           
   633                           ;SC8P171XD_IIC_Soft_Master.c: 147: I2C_WaitMoment();
   634  00C7  28D6               	ljmp	l1145
   635  00C8                     __end_of_I2C_WriteStop:	
   636                           
   637                           	psect	text233
   638  007A                     __ptext233:	
   639 ;; =============== function _I2C_WriteStop ends ============
   640                           
   641                           
   642 ;; *************** function _I2C_Write1Byte *****************
   643 ;; Defined at:
   644 ;;		line 157 in file "F:\TEST_CODE\SC8P171XD_C\SC8P171XD_IIC\SC8P171XD_IIC_Soft_Master.c"
   645 ;; Parameters:    Size  Location     Type
   646 ;;  data            1    wreg     unsigned char 
   647 ;; Auto vars:     Size  Location     Type
   648 ;;  data            1    2[COMMON] unsigned char 
   649 ;;  i               1    3[COMMON] unsigned char 
   650 ;; Return value:  Size  Location     Type
   651 ;;                  1    wreg      unsigned char 
   652 ;; Registers used:
   653 ;;		wreg, status,2, status,0, pclath, cstack
   654 ;; Tracked objects:
   655 ;;		On entry : 0/0
   656 ;;		On exit  : 20/20
   657 ;;		Unchanged: FFE00/0
   658 ;; Data sizes:     COMMON   BANK0   BANK1
   659 ;;      Params:         0       0       0
   660 ;;      Locals:         2       0       0
   661 ;;      Temps:          0       0       0
   662 ;;      Totals:         2       0       0
   663 ;;Total ram usage:        2 bytes
   664 ;; Hardware stack levels used:    1
   665 ;; Hardware stack levels required when called:    2
   666 ;; This function calls:
   667 ;;		_I2C_WaitMoment
   668 ;; This function is called by:
   669 ;;		_main
   670 ;; This function uses a non-reentrant model
   671 ;;
   672  007A                     _I2C_Write1Byte:	
   673                           
   674                           ; Regs used in _I2C_Write1Byte: [wreg+status,2+status,0+pclath+cstack]
   675                           ;I2C_Write1Byte@data stored from wreg
   676  007A  00F8               	movwf	I2C_Write1Byte@data
   677                           
   678                           ;SC8P171XD_IIC_Soft_Master.c: 158: unsigned char i = 8;
   679  007B  3008               	movlw	8
   680  007C  00F9               	movwf	I2C_Write1Byte@i
   681                           
   682                           ;SC8P171XD_IIC_Soft_Master.c: 159: TRISA1 = 0;
   683  007D  1683               	bsf	3,5	;RP0=1, select bank1
   684  007E  1085               	bcf	5,1
   685                           
   686                           ;SC8P171XD_IIC_Soft_Master.c: 160: TRISA0 = 0;
   687  007F  1005               	bcf	5,0
   688  0080                     l1165:	
   689                           
   690                           ;SC8P171XD_IIC_Soft_Master.c: 162: {
   691                           ;SC8P171XD_IIC_Soft_Master.c: 163: RA0 = 0;
   692  0080  1283               	bcf	3,5	;RP0=0, select bank0
   693  0081  1005               	bcf	5,0
   694                           
   695                           ;SC8P171XD_IIC_Soft_Master.c: 164: if(data&0x80)
   696  0082  1FF8               	btfss	I2C_Write1Byte@data,7
   697  0083  2886               	goto	l450
   698                           
   699                           ;SC8P171XD_IIC_Soft_Master.c: 165: RA1 = 1;
   700  0084  1485               	bsf	5,1
   701  0085  2887               	goto	l451
   702  0086                     l450:	
   703                           
   704                           ;SC8P171XD_IIC_Soft_Master.c: 166: else
   705                           ;SC8P171XD_IIC_Soft_Master.c: 167: RA1 = 0;
   706  0086  1085               	bcf	5,1
   707  0087                     l451:	
   708                           
   709                           ;SC8P171XD_IIC_Soft_Master.c: 169: RA0 = 1;
   710  0087  1405               	bsf	5,0
   711                           
   712                           ;SC8P171XD_IIC_Soft_Master.c: 170: data <<= 1;
   713  0088  1003               	clrc
   714  0089  0DF8               	rlf	I2C_Write1Byte@data,f
   715                           
   716                           ;SC8P171XD_IIC_Soft_Master.c: 171: }
   717                           ;SC8P171XD_IIC_Soft_Master.c: 172: while(--i);
   718  008A  0BF9               	decfsz	I2C_Write1Byte@i,f
   719  008B  2880               	goto	l1165
   720                           
   721                           ;SC8P171XD_IIC_Soft_Master.c: 173: RA0 = 0;
   722  008C  1005               	bcf	5,0
   723                           
   724                           ;SC8P171XD_IIC_Soft_Master.c: 175: TRISA1 = 1;
   725  008D  1683               	bsf	3,5	;RP0=1, select bank1
   726  008E  1485               	bsf	5,1
   727                           
   728                           ;SC8P171XD_IIC_Soft_Master.c: 177: I2C_WaitMoment();
   729  008F  20D6               	fcall	_I2C_WaitMoment
   730                           
   731                           ;SC8P171XD_IIC_Soft_Master.c: 178: RA0 = 1;
   732  0090  1283               	bcf	3,5	;RP0=0, select bank0
   733  0091  1405               	bsf	5,0
   734                           
   735                           ;SC8P171XD_IIC_Soft_Master.c: 179: I2C_WaitMoment();
   736  0092  20D6               	fcall	_I2C_WaitMoment
   737                           
   738                           ;SC8P171XD_IIC_Soft_Master.c: 182: RA0 = 0;
   739  0093  1283               	bcf	3,5	;RP0=0, select bank0
   740  0094  1005               	bcf	5,0
   741                           
   742                           ;SC8P171XD_IIC_Soft_Master.c: 183: TRISA1 = 0;
   743  0095  1683               	bsf	3,5	;RP0=1, select bank1
   744  0096  1085               	bcf	5,1
   745  0097  0008               	return
   746  0098                     __end_of_I2C_Write1Byte:	
   747                           
   748                           	psect	text234
   749  00C8                     __ptext234:	
   750 ;; =============== function _I2C_Write1Byte ends ============
   751                           
   752                           
   753 ;; *************** function _I2C_WriteStart *****************
   754 ;; Defined at:
   755 ;;		line 113 in file "F:\TEST_CODE\SC8P171XD_C\SC8P171XD_IIC\SC8P171XD_IIC_Soft_Master.c"
   756 ;; Parameters:    Size  Location     Type
   757 ;;		None
   758 ;; Auto vars:     Size  Location     Type
   759 ;;		None
   760 ;; Return value:  Size  Location     Type
   761 ;;		None               void
   762 ;; Registers used:
   763 ;;		status,2, status,0, pclath, cstack
   764 ;; Tracked objects:
   765 ;;		On entry : 0/0
   766 ;;		On exit  : 0/0
   767 ;;		Unchanged: FFE00/0
   768 ;; Data sizes:     COMMON   BANK0   BANK1
   769 ;;      Params:         0       0       0
   770 ;;      Locals:         0       0       0
   771 ;;      Temps:          0       0       0
   772 ;;      Totals:         0       0       0
   773 ;;Total ram usage:        0 bytes
   774 ;; Hardware stack levels used:    1
   775 ;; Hardware stack levels required when called:    2
   776 ;; This function calls:
   777 ;;		_I2C_WaitMoment
   778 ;; This function is called by:
   779 ;;		_main
   780 ;; This function uses a non-reentrant model
   781 ;;
   782  00C8                     _I2C_WriteStart:	
   783                           
   784                           ;SC8P171XD_IIC_Soft_Master.c: 114: TRISA1 = 0;
   785                           
   786                           ; Regs used in _I2C_WriteStart: [status,2+status,0+pclath+cstack]
   787  00C8  1683               	bsf	3,5	;RP0=1, select bank1
   788  00C9  1085               	bcf	5,1
   789                           
   790                           ;SC8P171XD_IIC_Soft_Master.c: 115: TRISA0 = 0;
   791  00CA  1005               	bcf	5,0
   792                           
   793                           ;SC8P171XD_IIC_Soft_Master.c: 116: I2C_WaitMoment();
   794  00CB  20D6               	fcall	_I2C_WaitMoment
   795                           
   796                           ;SC8P171XD_IIC_Soft_Master.c: 118: RA1 = 1;
   797  00CC  1283               	bcf	3,5	;RP0=0, select bank0
   798  00CD  1485               	bsf	5,1
   799                           
   800                           ;SC8P171XD_IIC_Soft_Master.c: 119: RA0 = 1;
   801  00CE  1405               	bsf	5,0
   802                           
   803                           ;SC8P171XD_IIC_Soft_Master.c: 120: I2C_WaitMoment();
   804  00CF  20D6               	fcall	_I2C_WaitMoment
   805                           
   806                           ;SC8P171XD_IIC_Soft_Master.c: 121: RA1 = 0;
   807  00D0  1283               	bcf	3,5	;RP0=0, select bank0
   808  00D1  1085               	bcf	5,1
   809                           
   810                           ;SC8P171XD_IIC_Soft_Master.c: 123: I2C_WaitMoment();
   811  00D2  20D6               	fcall	_I2C_WaitMoment
   812                           
   813                           ;SC8P171XD_IIC_Soft_Master.c: 124: RA0 = 0;
   814  00D3  1283               	bcf	3,5	;RP0=0, select bank0
   815  00D4  1005               	bcf	5,0
   816                           
   817                           ;SC8P171XD_IIC_Soft_Master.c: 125: I2C_WaitMoment();
   818  00D5  28D6               	ljmp	l1145
   819  00D6                     __end_of_I2C_WriteStart:	
   820                           
   821                           	psect	text235
   822  00D6                     __ptext235:	
   823 ;; =============== function _I2C_WriteStart ends ============
   824                           
   825                           
   826 ;; *************** function _I2C_WaitMoment *****************
   827 ;; Defined at:
   828 ;;		line 231 in file "F:\TEST_CODE\SC8P171XD_C\SC8P171XD_IIC\SC8P171XD_IIC_Soft_Master.c"
   829 ;; Parameters:    Size  Location     Type
   830 ;;		None
   831 ;; Auto vars:     Size  Location     Type
   832 ;;		None
   833 ;; Return value:  Size  Location     Type
   834 ;;		None               void
   835 ;; Registers used:
   836 ;;		None
   837 ;; Tracked objects:
   838 ;;		On entry : 0/20
   839 ;;		On exit  : 0/0
   840 ;;		Unchanged: FFE00/0
   841 ;; Data sizes:     COMMON   BANK0   BANK1
   842 ;;      Params:         0       0       0
   843 ;;      Locals:         0       0       0
   844 ;;      Temps:          0       0       0
   845 ;;      Totals:         0       0       0
   846 ;;Total ram usage:        0 bytes
   847 ;; Hardware stack levels used:    1
   848 ;; Hardware stack levels required when called:    1
   849 ;; This function calls:
   850 ;;		Nothing
   851 ;; This function is called by:
   852 ;;		_I2C_WriteStart
   853 ;;		_I2C_WriteStop
   854 ;;		_I2C_Write1Byte
   855 ;;		_I2C_Read1Byte
   856 ;; This function uses a non-reentrant model
   857 ;;
   858  00D6                     _I2C_WaitMoment:	
   859  00D6                     l1145:	
   860                           ; Regs used in _I2C_WaitMoment: []
   861                           
   862  00D6  0000               	nop	;#
   863  00D7  0000               	nop	;#
   864  00D8  0008               	return
   865  00D9                     __end_of_I2C_WaitMoment:	
   866                           
   867                           	psect	text236
   868  0098                     __ptext236:	
   869 ;; =============== function _I2C_WaitMoment ends ============
   870                           
   871                           
   872 ;; *************** function _ISR *****************
   873 ;; Defined at:
   874 ;;		line 88 in file "F:\TEST_CODE\SC8P171XD_C\SC8P171XD_IIC\SC8P171XD_IIC_Soft_Master.c"
   875 ;; Parameters:    Size  Location     Type
   876 ;;		None
   877 ;; Auto vars:     Size  Location     Type
   878 ;;		None
   879 ;; Return value:  Size  Location     Type
   880 ;;		None               void
   881 ;; Registers used:
   882 ;;		wreg, status,2, status,0
   883 ;; Tracked objects:
   884 ;;		On entry : 0/0
   885 ;;		On exit  : 20/0
   886 ;;		Unchanged: FFFDF/0
   887 ;; Data sizes:     COMMON   BANK0   BANK1
   888 ;;      Params:         0       0       0
   889 ;;      Locals:         0       0       0
   890 ;;      Temps:          2       0       0
   891 ;;      Totals:         2       0       0
   892 ;;Total ram usage:        2 bytes
   893 ;; Hardware stack levels used:    1
   894 ;; This function calls:
   895 ;;		Nothing
   896 ;; This function is called by:
   897 ;;		Interrupt level 1
   898 ;; This function uses a non-reentrant model
   899 ;;
   900  0098                     _ISR:	
   901                           
   902                           ;SC8P171XD_IIC_Soft_Master.c: 89: static unsigned char tcount;
   903                           ;SC8P171XD_IIC_Soft_Master.c: 90: if(TMR2IF)
   904  0098  1283               	bcf	3,5	;RP0=0, select bank0
   905  0099  1C8C               	btfss	12,1
   906  009A  28A4               	goto	i1l847
   907  009B  3028               	movlw	40
   908                           
   909                           ;SC8P171XD_IIC_Soft_Master.c: 91: {
   910                           ;SC8P171XD_IIC_Soft_Master.c: 92: TMR2IF = 0;
   911  009C  108C               	bcf	12,1
   912                           
   913                           ;SC8P171XD_IIC_Soft_Master.c: 94: if(++tcount >= 40)
   914  009D  0AF5               	incf	ISR@tcount,f
   915  009E  0275               	subwf	ISR@tcount,w
   916  009F  1C03               	skipc
   917  00A0  28A5               	goto	i1l440
   918                           
   919                           ;SC8P171XD_IIC_Soft_Master.c: 95: {
   920                           ;SC8P171XD_IIC_Soft_Master.c: 96: tcount = 0;
   921  00A1  01F5               	clrf	ISR@tcount
   922                           
   923                           ;SC8P171XD_IIC_Soft_Master.c: 97: B_MainLoop = 1;
   924  00A2  147B               	bsf	_B_MainLoop/(0+8),_B_MainLoop& (0+7)
   925  00A3  28A5               	goto	i1l440
   926  00A4                     i1l847:	
   927                           
   928                           ;SC8P171XD_IIC_Soft_Master.c: 100: else
   929                           ;SC8P171XD_IIC_Soft_Master.c: 101: {
   930                           ;SC8P171XD_IIC_Soft_Master.c: 102: PIR1 = 0;
   931  00A4  018C               	clrf	12	;volatile
   932  00A5                     i1l440:	
   933  00A5  0877               	movf	??_ISR+1,w
   934  00A6  008A               	movwf	10
   935  00A7  0E76               	swapf	??_ISR^(0+-128),w
   936  00A8  0083               	movwf	3
   937  00A9  0EFE               	swapf	126,f
   938  00AA  0E7E               	swapf	126,w
   939  00AB  0009               	retfie
   940  00AC                     __end_of_ISR:	
   941                           
   942                           	psect	intentry
   943  0004                     __pintentry:	
   944                           ; Regs used in _ISR: [wreg+status,2+status,0]
   945                           
   946  0004                     interrupt_function:	
   947  007E                     saved_w	set	btemp
   948  0004  00FE               	movwf	btemp
   949  0005  0E03               	swapf	3,w
   950  0006  00F6               	movwf	??_ISR
   951  0007  080A               	movf	10,w
   952  0008  00F7               	movwf	??_ISR+1
   953  0009  2898               	ljmp	_ISR
   954                           
   955                           	psect	text237
   956  0000                     __ptext237:	
   957 ;; =============== function _ISR ends ============
   958                           
   959  007E                     btemp	set	126	;btemp
   960  007E                     wtemp0	set	126


HI-TECH Software PICC Macro Assembler V9.83 build 10920 
Symbol Table                                                                                   Fri Jul 12 08:23:52 2019

                    l450 0086                      l443 0000                      l451 0087  
                    l452 0000                      l460 005E                      l453 0000  
                    l446 0000                      l456 0050                      l465 0000  
                    l468 0000                      _RA0 0028                      _RA1 0029  
                    _PR2 0092                      _ISR 0098                     ?_ISR 0076  
                   l1201 0000                     l1203 0000                     l1221 0000  
                   l1151 0000                     l1223 0072                     l1215 0000  
                   l1145 00D6                     l1153 0000                     l1161 0000  
                   l1225 0000                     l1217 0000                     l1241 0000  
                   l1233 0000                     l1155 0000                     l1147 0000  
                   l1171 0000                     l1163 0000                     l1227 0000  
                   l1219 0000                     l1251 0000                     l1243 0000  
                   l1235 0000                     l1157 0000                     l1149 0000  
                   l1173 0000                     l1165 0080                     l1229 0000  
                   l1253 0000                     l1245 0000                     l1237 0000  
                   l1175 0000                     l1167 0000                     l1159 0000  
                   l1191 0000                     l1183 0000                     l1271 0000  
                   l1263 0000                     l1255 0020                     l1247 0000  
                   l1239 0000                     l1177 0000                     l1193 0000  
                   l1185 0000                     l1281 0000                     l1273 0000  
                   l1265 0000                     l1249 0000                     l1179 0000  
                   l1187 0000                     l1195 0000                     l1291 0000  
                   l1283 0000                     l1275 0000                     l1267 0000  
                   l1259 0000                     l1189 0000                     l1197 0000  
                   l1285 0000                     l1277 0000                     l1269 0000  
                   l1199 0000                     l1287 0000                     l1279 0000  
                   l1289 0000                     _PIE1 008C                     _PIR1 000C  
                   _main 000B                     btemp 007E                     start 000A  
                  ??_ISR 0076                    ?_main 0076                    _T2CON 0012  
                  i1l440 00A5                    i1l841 0000                    i1l845 0000  
                  i1l837 0000                    i1l847 00A4                    _PORTB 0006  
 __size_of_I2C_Read1Byte 002F                    _TRISB 0086           __pbitbssCOMMON 03D8  
                  pclath 000A                    status 0003                    wtemp0 007E  
           __end_of_main 004B                   ??_main 007B               _Recebuffer 0070  
 __size_of_I2C_WriteStop 000E                   _INTCON 000B                   _OSCCON 008F  
                 _TMR2IE 0461                   _TMR2IF 0061                   _TRISA0 0428  
                 _TRISA1 0429               _Sendbuffer 0020            _I2C_Read1Byte 004B  
        I2C_Write1Byte@i 0079         I2C_Read1Byte@ack 0078                   saved_w 007E  
         ?_I2C_Read1Byte 0076           __pcstackCOMMON 0076  __size_of_I2C_WaitMoment 0003  
          _I2C_WriteStop 00BA           I2C_Read1Byte@i 007A               __pbssBANK0 0020  
              ISR@tcount 0075               __pmaintext 000B  __size_of_I2C_Write1Byte 001E  
         ?_I2C_WriteStop 0076               __pintentry 0004  __size_of_I2C_WriteStart 000E  
        ??_I2C_Read1Byte 0078             __size_of_ISR 0014     end_of_initialization 00B8  
      I2C_Read1Byte@data 0079          ??_I2C_WriteStop 0078           _I2C_WaitMoment 00D6  
 __end_of_I2C_WaitMoment 00D9               main@time1s 0025           _I2C_Write1Byte 007A  
         _I2C_WriteStart 00C8      start_initialization 00AC              __end_of_ISR 00AC  
 __end_of_I2C_Write1Byte 0098          ?_I2C_WaitMoment 0076   __end_of_I2C_WriteStart 00D6  
            __pbssCOMMON 0070            __pcstackBANK0 0025       I2C_Write1Byte@data 0078  
        ?_I2C_Write1Byte 0076          ?_I2C_WriteStart 0076                __ptext230 0000  
              __ptext231 004B                __ptext232 00BA                __ptext233 007A  
              __ptext234 00C8                __ptext235 00D6                __ptext236 0098  
              __ptext237 0000        interrupt_function 0004    __end_of_I2C_Read1Byte 007A  
  __end_of_I2C_WriteStop 00C8         ??_I2C_WaitMoment 0078            __size_of_main 0040  
       ??_I2C_Write1Byte 0078                 intlevel1 0000         ??_I2C_WriteStart 0078  
             _B_MainLoop 03D8  
