LX51 LINKER/LOCATER V4.66.66.0                                                          04/26/2020  19:18:32  PAGE 1


LX51 LINKER/LOCATER V4.66.66.0, INVOKED BY:
C:\KEIL\C51\BIN\LX51.EXE .\Objects\STARTUP_CMS8S5880.obj, .\Objects\led.obj TO .\Objects\Target 1 PRINT (.\Listings\Targ
>> et 1.map)


CPU MODE:     8051 MODE
MEMORY MODEL: SMALL


INPUT MODULES INCLUDED:
  .\Objects\STARTUP_CMS8S5880.obj (?C_STARTUP)
         COMMENT TYPE 1: A51 / ASM51 Assembler
  .\Objects\led.obj (LED)
         COMMENT TYPE 0: C51 V9.56.0.0
  C:\KEIL\C51\LIB\C51S.LIB (?C_INIT)
         COMMENT TYPE 1: A51 / ASM51 Assembler
  C:\KEIL\C51\LIB\C51S.LIB (?C?UIDIV)
         COMMENT TYPE 1: A51 / ASM51 Assembler
  C:\KEIL\C51\LIB\C51S.LIB (?C?ISTOPTR)
         COMMENT TYPE 1: A51 / ASM51 Assembler


ACTIVE MEMORY CLASSES OF MODULE:  .\Objects\Target 1 (?C_STARTUP)

BASE        START       END         USED      MEMORY CLASS
==========================================================
C:000000H   C:000000H   C:00FFFFH   000AC8H   CODE
I:000000H   I:000000H   I:0000FFH   000001H   IDATA
I:000000H   I:000000H   I:00007FH   000071H   DATA


MEMORY MAP OF MODULE:  .\Objects\Target 1 (?C_STARTUP)


START     STOP      LENGTH    ALIGN  RELOC    MEMORY CLASS   SEGMENT NAME
=========================================================================

* * * * * * * * * * *   D A T A   M E M O R Y   * * * * * * * * * * * * *
000000H   000007H   000008H   ---    AT..     DATA           "REG BANK 0"
000008H   000017H   000010H   BYTE   UNIT     DATA           ?DT?_LED_LOOP?LED
000018H   000022H   00000BH   BYTE   UNIT     DATA           ?DT?LED
000023H   00002CH   00000AH   BYTE   UNIT     DATA           ?DT?_LED_LOOP_R?LED
00002DH   000036H   00000AH   BYTE   UNIT     DATA           ?DT?_LED_LOOP_G?LED
000037H   000040H   00000AH   BYTE   UNIT     DATA           ?DT?_LED_LOOP_B?LED
000041H   00004AH   00000AH   BYTE   UNIT     DATA           ?DT?_LED_LOOP_RG?LED
00004BH   000054H   00000AH   BYTE   UNIT     DATA           ?DT?_LED_LOOP_GB?LED
000055H   00005EH   00000AH   BYTE   UNIT     DATA           ?DT?_LED_LOOP_RGB?LED
00005FH   000068H   00000AH   BYTE   UNIT     DATA           ?DT?_LED_LOOP_RB?LED
000069H   00006CH   000004H   BYTE   UNIT     DATA           ?DT?_DELAY_MS?LED
00006DH   00006EH   000002H   BYTE   UNIT     DATA           ?DT?_DELAY_US?LED
00006FH   000070H   000002H   BYTE   UNIT     DATA           ?DT?_DELAY?LED
000071H   000071H   000001H   BYTE   UNIT     IDATA          ?STACK

* * * * * * * * * * *   C O D E   M E M O R Y   * * * * * * * * * * * * *
000000H   000002H   000003H   ---    OFFS..   CODE           ?CO??C_STARTUP?0
000003H   00000AH   000008H   ---    ---      **GAP**
00000BH   00000DH   000003H   BYTE   OFFS..   CODE           ?LED?0000B
00000EH   0000F8H   0000EBH   BYTE   UNIT     CODE           ?PR?_LED_LOOP?LED
0000F9H   0001BDH   0000C5H   BYTE   UNIT     CODE           ?PR?DISP?LED
0001BEH   000257H   00009AH   BYTE   UNIT     CODE           ?C_C51STARTUP
000258H   0002E2H   00008BH   BYTE   UNIT     CODE           ?PR?_LED_LOOP_RGB?LED
0002E3H   000364H   000082H   BYTE   UNIT     CODE           ?C?LIB_CODE
000365H   0003E3H   00007FH   BYTE   UNIT     CODE           ?PR?_LED_LOOP_RG?LED
0003E4H   000462H   00007FH   BYTE   UNIT     CODE           ?PR?_LED_LOOP_GB?LED
000463H   0004E1H   00007FH   BYTE   UNIT     CODE           ?PR?_LED_LOOP_RB?LED
0004E2H   000554H   000073H   BYTE   UNIT     CODE           ?PR?_LED_LOOP_R?LED
LX51 LINKER/LOCATER V4.66.66.0                                                        04/26/2020  19:18:32  PAGE 2


000555H   0005C7H   000073H   BYTE   UNIT     CODE           ?PR?_LED_LOOP_G?LED
0005C8H   00063AH   000073H   BYTE   UNIT     CODE           ?PR?_LED_LOOP_B?LED
00063BH   0006AAH   000070H   BYTE   UNIT     CODE           ?PR?LED_BREATH_R?LED
0006ABH   00071AH   000070H   BYTE   UNIT     CODE           ?PR?LED_BREATH_G?LED
00071BH   00078AH   000070H   BYTE   UNIT     CODE           ?PR?LED_BREATH_B?LED
00078BH   0007FAH   000070H   BYTE   UNIT     CODE           ?PR?LED_BREATH_RG?LED
0007FBH   00086AH   000070H   BYTE   UNIT     CODE           ?PR?LED_BREATH_GB?LED
00086BH   0008DAH   000070H   BYTE   UNIT     CODE           ?PR?LED_BREATH_RGB?LED
0008DBH   00094AH   000070H   BYTE   UNIT     CODE           ?PR?LED_BREATH_RB?LED
00094BH   00099BH   000051H   BYTE   UNIT     CODE           ?PR?GPIO_INIT?LED
00099CH   0009EAH   00004FH   BYTE   UNIT     CODE           ?PR?MAIN?LED
0009EBH   000A2DH   000043H   BYTE   UNIT     CODE           ?PR?_DELAY_MS?LED
000A2EH   000A5EH   000031H   BYTE   UNIT     CODE           ?PR?KEY_SCAN?LED
000A5FH   000A76H   000018H   BYTE   UNIT     CODE           ?PR?TIMER0_INT?LED
000A77H   000A8DH   000017H   BYTE   UNIT     CODE           ?C_INITSEG
000A8EH   000AA2H   000015H   BYTE   UNIT     CODE           ?PR?_DELAY?LED
000AA3H   000AB6H   000014H   BYTE   UNIT     CODE           ?PR?_DELAY_US?LED
000AB7H   000AC6H   000010H   BYTE   UNIT     CODE           ?PR?TIMER0_INIT?LED
000AC7H   000ACFH   000009H   BYTE   UNIT     CODE           ?PR?INT_INIT?LED



OVERLAY MAP OF MODULE:   .\Objects\Target 1 (?C_STARTUP)


FUNCTION/MODULE              BIT_GROUP   DATA_GROUP 
--> CALLED FUNCTION/MODULE  START  STOP  START  STOP
====================================================
?C_C51STARTUP               ----- -----  ----- -----
  +--> MAIN/LED
  +--> ?C_INITSEG

MAIN/LED                    ----- -----  ----- -----
  +--> GPIO_INIT/LED
  +--> TIMER0_INIT/LED
  +--> INT_INIT/LED
  +--> LED_BREATH_R/LED
  +--> LED_BREATH_RB/LED
  +--> LED_BREATH_G/LED
  +--> LED_BREATH_B/LED
  +--> LED_BREATH_RG/LED
  +--> LED_BREATH_GB/LED
  +--> LED_BREATH_RGB/LED

GPIO_INIT/LED               ----- -----  ----- -----

TIMER0_INIT/LED             ----- -----  ----- -----

INT_INIT/LED                ----- -----  ----- -----

LED_BREATH_R/LED            ----- -----  ----- -----
  +--> _LED_LOOP_R/LED

_LED_LOOP_R/LED             ----- -----  ----- -----
  +--> _DELAY/LED

_DELAY/LED                  ----- -----  ----- -----

LED_BREATH_RB/LED           ----- -----  ----- -----
  +--> _LED_LOOP_RB/LED

_LED_LOOP_RB/LED            ----- -----  ----- -----
  +--> _DELAY/LED

LED_BREATH_G/LED            ----- -----  ----- -----
LX51 LINKER/LOCATER V4.66.66.0                                                        04/26/2020  19:18:32  PAGE 3


  +--> _LED_LOOP_G/LED

_LED_LOOP_G/LED             ----- -----  ----- -----
  +--> _DELAY/LED

LED_BREATH_B/LED            ----- -----  ----- -----
  +--> _LED_LOOP_B/LED

_LED_LOOP_B/LED             ----- -----  ----- -----
  +--> _DELAY/LED

LED_BREATH_RG/LED           ----- -----  ----- -----
  +--> _LED_LOOP_RG/LED

_LED_LOOP_RG/LED            ----- -----  ----- -----
  +--> _DELAY/LED

LED_BREATH_GB/LED           ----- -----  ----- -----
  +--> _LED_LOOP_GB/LED

_LED_LOOP_GB/LED            ----- -----  ----- -----
  +--> _DELAY/LED

LED_BREATH_RGB/LED          ----- -----  ----- -----
  +--> _LED_LOOP_RGB/LED

_LED_LOOP_RGB/LED           ----- -----  ----- -----
  +--> _DELAY/LED

?C_INITSEG                  ----- -----  ----- -----

*** NEW ROOT **************

TIMER0_INT/LED              ----- -----  ----- -----



PUBLIC SYMBOLS OF MODULE:  .\Objects\Target 1 (?C_STARTUP)


      VALUE       CLASS    TYPE      PUBLIC SYMBOL NAME
      =================================================
      00000008H   DATA     BYTE      ?_LED_LOOP?BYTE
      00000000H   NUMBER   ---       ?C?CODESEG
      01000338H   CODE     ---       ?C?ISTOPTR
      010002E3H   CODE     ---       ?C?UIDIV
      00000000H   NUMBER   ---       ?C?XDATASEG
      01000213H   CODE     ---       ?C_START
      01000000H   CODE     ---       ?C_STARTUP
      01000A8EH   CODE     ---       _Delay
      010009EBH   CODE     ---       _delay_ms
      01000AA3H   CODE     ---       _delay_us
      0100000EH   CODE     ---       _LED_LOOP
      010005C8H   CODE     ---       _LED_LOOP_B
      01000555H   CODE     ---       _LED_LOOP_G
      010003E4H   CODE     ---       _LED_LOOP_GB
      010004E2H   CODE     ---       _LED_LOOP_R
      01000463H   CODE     ---       _LED_LOOP_RB
      01000365H   CODE     ---       _LED_LOOP_RG
      01000258H   CODE     ---       _LED_LOOP_RGB
*SFR* 000000D0H.6 DATA     BIT       AC
*SFR* 000000E0H   DATA     BYTE      ACC
*SFR* 000000D4H   DATA     WORD      ADCMP
*SFR* 000000D1H   DATA     BYTE      ADCMPC
*SFR* 000000D5H   DATA     BYTE      ADCMPH
LX51 LINKER/LOCATER V4.66.66.0                                                        04/26/2020  19:18:32  PAGE 4


*SFR* 000000D4H   DATA     BYTE      ADCMPL
*SFR* 000000DFH   DATA     BYTE      ADCON0
*SFR* 000000DEH   DATA     BYTE      ADCON1
*SFR* 000000E9H   DATA     BYTE      ADCON2
*SFR* 000000D3H   DATA     BYTE      ADDLYL
*SFR* 000000DCH   DATA     WORD      ADRES
*SFR* 000000DDH   DATA     BYTE      ADRESH
*SFR* 000000DCH   DATA     BYTE      ADRESL
*SFR* 000000F0H   DATA     BYTE      B
*SFR* 000000BFH   DATA     BYTE      BUZCON
*SFR* 000000BEH   DATA     BYTE      BUZDIV
*SFR* 000000D6H   DATA     BYTE      CAPCR0
*SFR* 000000D7H   DATA     BYTE      CAPCR1
*SFR* 000000C8H.5 DATA     BIT       CAPES
*SFR* 000000C2H   DATA     WORD      CC1
*SFR* 000000C4H   DATA     WORD      CC2
*SFR* 000000C6H   DATA     WORD      CC3
*SFR* 000000CEH   DATA     BYTE      CCEN
*SFR* 000000C3H   DATA     BYTE      CCH1
*SFR* 000000C5H   DATA     BYTE      CCH2
*SFR* 000000C7H   DATA     BYTE      CCH3
*SFR* 000000C2H   DATA     BYTE      CCL1
*SFR* 000000C4H   DATA     BYTE      CCL2
*SFR* 000000C6H   DATA     BYTE      CCL3
*SFR* 0000008EH   DATA     BYTE      CKCON
*SFR* 0000008FH   DATA     BYTE      CLKDIV
*SFR* 000000D0H.7 DATA     BIT       CY
      010000F9H   CODE     ---       disp
*SFR* 00000083H   DATA     BYTE      DPH0
*SFR* 00000085H   DATA     BYTE      DPH1
*SFR* 00000082H   DATA     BYTE      DPL0
*SFR* 00000084H   DATA     BYTE      DPL1
*SFR* 00000086H   DATA     BYTE      DPS
*SFR* 00000082H   DATA     WORD      DPTR0
*SFR* 00000084H   DATA     WORD      DPTR1
*SFR* 00000093H   DATA     BYTE      DPX0
*SFR* 00000095H   DATA     BYTE      DPX1
*SFR* 000000A8H.7 DATA     BIT       EA
*SFR* 000000AAH   DATA     BYTE      EIE2
*SFR* 000000B2H   DATA     BYTE      EIF2
*SFR* 000000B9H   DATA     BYTE      EIP1
*SFR* 000000BAH   DATA     BYTE      EIP2
*SFR* 000000A8H.4 DATA     BIT       ES0
*SFR* 000000A8H.6 DATA     BIT       ES1
*SFR* 000000A8H.1 DATA     BIT       ET0
*SFR* 000000A8H.3 DATA     BIT       ET1
*SFR* 000000A8H.5 DATA     BIT       ET2
*SFR* 000000A8H   DATA     BIT       EX0
*SFR* 000000A8H.2 DATA     BIT       EX1
*SFR* 000000D0H.5 DATA     BIT       F0
*SFR* 00000091H   DATA     BYTE      FUNCCR
      0100094BH   CODE     ---       GPIO_Init
*SFR* 000000F6H   DATA     BYTE      I2CMBUF
*SFR* 000000F5H   DATA     BYTE      I2CMCR
*SFR* 000000F4H   DATA     BYTE      I2CMSA
*SFR* 000000F7H   DATA     BYTE      I2CMTP
*SFR* 000000F1H   DATA     BYTE      I2CSADR
*SFR* 000000F3H   DATA     BYTE      I2CSBUF
*SFR* 000000F2H   DATA     BYTE      I2CSCR
*SFR* 000000C8H.6 DATA     BIT       I3FR
*SFR* 000000A8H   DATA     BYTE      IE
*SFR* 00000088H.1 DATA     BIT       IE0
*SFR* 00000088H.3 DATA     BIT       IE1
      01000AC7H   CODE     ---       INT_init
*SFR* 000000B8H   DATA     BYTE      IP
LX51 LINKER/LOCATER V4.66.66.0                                                        04/26/2020  19:18:32  PAGE 5


*SFR* 00000088H   DATA     BIT       IT0
*SFR* 00000088H.2 DATA     BIT       IT1
      01000A2EH   CODE     ---       KEY_Scan
      00000021H   DATA     WORD      km
      0100071BH   CODE     ---       LED_BREATH_B
      010006ABH   CODE     ---       LED_BREATH_G
      010007FBH   CODE     ---       LED_BREATH_GB
      0100063BH   CODE     ---       LED_BREATH_R
      010008DBH   CODE     ---       LED_BREATH_RB
      0100078BH   CODE     ---       LED_BREATH_RG
      0100086BH   CODE     ---       LED_BREATH_RGB
*SFR* 000000FCH   DATA     WORD      MADR
*SFR* 000000FDH   DATA     BYTE      MADRH
*SFR* 000000FCH   DATA     BYTE      MADRL
      0100099CH   CODE     ---       main
*SFR* 000000FBH   DATA     BYTE      MAIN_LOCK
*SFR* 000000FFH   DATA     BYTE      MCTRL
*SFR* 000000FEH   DATA     BYTE      MDATA
*SFR* 000000D0H.2 DATA     BIT       OV
*SFR* 000000D0H   DATA     BIT       P
*SFR* 00000080H   DATA     BYTE      P0
*SFR* 00000080H   DATA     BIT       P0_0
*SFR* 00000080H.1 DATA     BIT       P0_1
*SFR* 00000080H.2 DATA     BIT       P0_2
*SFR* 00000080H.3 DATA     BIT       P0_3
*SFR* 00000080H.4 DATA     BIT       P0_4
*SFR* 00000080H.5 DATA     BIT       P0_5
*SFR* 00000080H.6 DATA     BIT       P0_6
*SFR* 00000080H.7 DATA     BIT       P0_7
*SFR* 000000ACH   DATA     BYTE      P0EXTIE
*SFR* 000000B4H   DATA     BYTE      P0EXTIF
*SFR* 0000009AH   DATA     BYTE      P0TRIS
*SFR* 00000090H   DATA     BYTE      P1
*SFR* 00000090H   DATA     BIT       P1_0
*SFR* 00000090H.1 DATA     BIT       P1_1
*SFR* 00000090H.2 DATA     BIT       P1_2
*SFR* 00000090H.3 DATA     BIT       P1_3
*SFR* 00000090H.4 DATA     BIT       P1_4
*SFR* 00000090H.5 DATA     BIT       P1_5
*SFR* 00000090H.6 DATA     BIT       P1_6
*SFR* 00000090H.7 DATA     BIT       P1_7
*SFR* 000000ADH   DATA     BYTE      P1EXTIE
*SFR* 000000B5H   DATA     BYTE      P1EXTIF
*SFR* 000000A1H   DATA     BYTE      P1TRIS
*SFR* 000000A0H   DATA     BYTE      P2
*SFR* 000000A0H   DATA     BIT       P2_0
*SFR* 000000A0H.1 DATA     BIT       P2_1
*SFR* 000000A0H.2 DATA     BIT       P2_2
*SFR* 000000A0H.3 DATA     BIT       P2_3
*SFR* 000000A0H.4 DATA     BIT       P2_4
*SFR* 000000A0H.5 DATA     BIT       P2_5
*SFR* 000000A0H.6 DATA     BIT       P2_6
*SFR* 000000A0H.7 DATA     BIT       P2_7
*SFR* 000000AEH   DATA     BYTE      P2EXTIE
*SFR* 000000B6H   DATA     BYTE      P2EXTIF
*SFR* 000000A2H   DATA     BYTE      P2TRIS
*SFR* 000000B0H   DATA     BYTE      P3
*SFR* 000000B0H   DATA     BIT       P3_0
*SFR* 000000B0H.1 DATA     BIT       P3_1
*SFR* 000000B0H.2 DATA     BIT       P3_2
*SFR* 000000B0H.3 DATA     BIT       P3_3
*SFR* 000000B0H.4 DATA     BIT       P3_4
*SFR* 000000B0H.5 DATA     BIT       P3_5
*SFR* 000000B0H.6 DATA     BIT       P3_6
*SFR* 000000B0H.7 DATA     BIT       P3_7
LX51 LINKER/LOCATER V4.66.66.0                                                        04/26/2020  19:18:32  PAGE 6


*SFR* 000000AFH   DATA     BYTE      P3EXTIE
*SFR* 000000B7H   DATA     BYTE      P3EXTIF
*SFR* 000000A3H   DATA     BYTE      P3TRIS
*SFR* 00000087H   DATA     BYTE      PCON
*SFR* 000000B8H.4 DATA     BIT       PS0
*SFR* 000000B8H.6 DATA     BIT       PS1
*SFR* 000000D0H   DATA     BYTE      PSW
*SFR* 000000B8H.1 DATA     BIT       PT0
*SFR* 000000B8H.3 DATA     BIT       PT1
*SFR* 000000B8H.5 DATA     BIT       PT2
*SFR* 000000B8H   DATA     BIT       PX0
*SFR* 000000B8H.2 DATA     BIT       PX1
*SFR* 00000098H.2 DATA     BIT       RB08
*SFR* 000000CAH   DATA     WORD      RCR
*SFR* 00000098H.4 DATA     BIT       REN0
*SFR* 00000098H   DATA     BIT       RI0
*SFR* 000000CAH   DATA     WORD      RLD
*SFR* 000000CBH   DATA     BYTE      RLDH
*SFR* 000000CAH   DATA     BYTE      RLDL
*SFR* 000000D0H.3 DATA     BIT       RS0
*SFR* 000000D0H.4 DATA     BIT       RS1
*SFR* 00000099H   DATA     BYTE      SBUF
*SFR* 00000099H   DATA     BYTE      SBUF0
*SFR* 000000EBH   DATA     BYTE      SBUF1
*SFR* 00000098H   DATA     BYTE      SCON
*SFR* 00000098H   DATA     BYTE      SCON0
*SFR* 000000EAH   DATA     BYTE      SCON1
*SFR* 00000098H.7 DATA     BIT       SM00
*SFR* 00000098H.6 DATA     BIT       SM01
*SFR* 00000098H.5 DATA     BIT       SM02
*SFR* 00000081H   DATA     BYTE      SP
*SFR* 000000ECH   DATA     BYTE      SPCR
*SFR* 000000EEH   DATA     BYTE      SPDR
*SFR* 000000EDH   DATA     BYTE      SPSR
*SFR* 000000EFH   DATA     BYTE      SSCR
*SFR* 000000CCH   DATA     WORD      T2
*SFR* 000000C8H.2 DATA     BIT       T2CM
*SFR* 000000C8H   DATA     BYTE      T2CON
*SFR* 000000C8H   DATA     BIT       T2I0
*SFR* 000000C8H.1 DATA     BIT       T2I1
*SFR* 000000CFH   DATA     BYTE      T2IE
*SFR* 000000C9H   DATA     BYTE      T2IF
*SFR* 000000C8H.7 DATA     BIT       T2PS
*SFR* 000000C8H.3 DATA     BIT       T2R0
*SFR* 000000C8H.4 DATA     BIT       T2R1
*SFR* 000000D2H   DATA     BYTE      T34MOD
*SFR* 00000096H   DATA     BYTE      TA
*SFR* 00000098H.3 DATA     BIT       TB08
*SFR* 00000088H   DATA     BYTE      TCON
      0000001DH   DATA     WORD      temp
*SFR* 00000088H.5 DATA     BIT       TF0
*SFR* 00000088H.7 DATA     BIT       TF1
*SFR* 0000008CH   DATA     BYTE      TH0
*SFR* 0000008DH   DATA     BYTE      TH1
*SFR* 000000CDH   DATA     BYTE      TH2
*SFR* 000000DBH   DATA     BYTE      TH3
*SFR* 000000E3H   DATA     BYTE      TH4
*SFR* 00000098H.1 DATA     BIT       TI0
      01000AB7H   CODE     ---       Timer0_init
      01000A5FH   CODE     ---       Timer0_INT
      00000019H   DATA     WORD      times
*SFR* 0000008AH   DATA     BYTE      TL0
*SFR* 0000008BH   DATA     BYTE      TL1
*SFR* 000000CCH   DATA     BYTE      TL2
*SFR* 000000DAH   DATA     BYTE      TL3
LX51 LINKER/LOCATER V4.66.66.0                                                        04/26/2020  19:18:32  PAGE 7


*SFR* 000000E2H   DATA     BYTE      TL4
*SFR* 00000089H   DATA     BYTE      TMOD
*SFR* 00000088H.4 DATA     BIT       TR0
*SFR* 00000088H.6 DATA     BIT       TR1
*SFR* 00000098H.2 DATA     BIT       U0RB8
*SFR* 00000098H.4 DATA     BIT       U0REN
*SFR* 00000098H.7 DATA     BIT       U0SM0
*SFR* 00000098H.6 DATA     BIT       U0SM1
*SFR* 00000098H.5 DATA     BIT       U0SM2
*SFR* 00000098H.3 DATA     BIT       U0TB8
      00000018H   DATA     ---       uFlg
*SFR* 00000097H   DATA     BYTE      WDCON
*SFR* 00000097H   DATA     BYTE      WDTCON
*SFR* 000000BDH   DATA     BYTE      WKTCH
*SFR* 000000BCH   DATA     BYTE      WKTCL



SYMBOL TABLE OF MODULE:  .\Objects\Target 1 (?C_STARTUP)

      VALUE       REP       CLASS    TYPE      SYMBOL NAME
      ====================================================
      ---         MODULE    ---      ---       ?C_STARTUP
      01000000H   PUBLIC    CODE     ---       ?C_STARTUP
      000000E0H   SYMBOL    DATA     ---       ACC
      000000F0H   SYMBOL    DATA     ---       B
      00000083H   SYMBOL    DATA     ---       DPH
      00000082H   SYMBOL    DATA     ---       DPL
      00000000H   SYMBOL    NUMBER   ---       IBPSTACK
      00000100H   SYMBOL    NUMBER   ---       IBPSTACKTOP
      00000100H   SYMBOL    NUMBER   ---       IDATALEN
      010001C1H   SYMBOL    CODE     ---       IDATALOOP
      00000000H   SYMBOL    NUMBER   ---       PBPSTACK
      00000100H   SYMBOL    NUMBER   ---       PBPSTACKTOP
      00000000H   SYMBOL    NUMBER   ---       PDATALEN
      00000000H   SYMBOL    NUMBER   ---       PDATASTART
      00000000H   SYMBOL    NUMBER   ---       PPAGE
      00000000H   SYMBOL    NUMBER   ---       PPAGEENABLE
      000000A0H   SYMBOL    DATA     ---       PPAGE_SFR
      00000081H   SYMBOL    DATA     ---       SP
      010001BEH   SYMBOL    CODE     ---       STARTUP1
      00000000H   SYMBOL    NUMBER   ---       XBPSTACK
      00000000H   SYMBOL    NUMBER   ---       XBPSTACKTOP
      000001FFH   SYMBOL    NUMBER   ---       XDATALEN
      010001CCH   SYMBOL    CODE     ---       XDATALOOP
      00000000H   SYMBOL    NUMBER   ---       XDATASTART
      01000000H   LINE      CODE     ---       #126
      010001BEH   LINE      CODE     ---       #133
      010001C0H   LINE      CODE     ---       #134
      010001C1H   LINE      CODE     ---       #135
      010001C2H   LINE      CODE     ---       #136
      010001C4H   LINE      CODE     ---       #140
      010001C7H   LINE      CODE     ---       #141
      010001C9H   LINE      CODE     ---       #143
      010001CBH   LINE      CODE     ---       #147
      010001CCH   LINE      CODE     ---       #148
      010001CDH   LINE      CODE     ---       #149
      010001CEH   LINE      CODE     ---       #150
      010001D0H   LINE      CODE     ---       #151
      010001D2H   LINE      CODE     ---       #185
      010001D5H   LINE      CODE     ---       #196

      ---         MODULE    ---      ---       LED
      00000021H   PUBLIC    DATA     WORD      km
      0000001DH   PUBLIC    DATA     WORD      temp
LX51 LINKER/LOCATER V4.66.66.0                                                        04/26/2020  19:18:32  PAGE 8


      00000019H   PUBLIC    DATA     WORD      times
      00000018H   PUBLIC    DATA     ---       uFlg
      01000A5FH   PUBLIC    CODE     ---       Timer0_INT
      01000AC7H   PUBLIC    CODE     ---       INT_init
      01000AB7H   PUBLIC    CODE     ---       Timer0_init
      0100099CH   PUBLIC    CODE     ---       main
      010008DBH   PUBLIC    CODE     ---       LED_BREATH_RB
      01000463H   PUBLIC    CODE     ---       _LED_LOOP_RB
      0100086BH   PUBLIC    CODE     ---       LED_BREATH_RGB
      01000258H   PUBLIC    CODE     ---       _LED_LOOP_RGB
      010007FBH   PUBLIC    CODE     ---       LED_BREATH_GB
      010003E4H   PUBLIC    CODE     ---       _LED_LOOP_GB
      0100078BH   PUBLIC    CODE     ---       LED_BREATH_RG
      01000365H   PUBLIC    CODE     ---       _LED_LOOP_RG
      0100071BH   PUBLIC    CODE     ---       LED_BREATH_B
      010005C8H   PUBLIC    CODE     ---       _LED_LOOP_B
      010006ABH   PUBLIC    CODE     ---       LED_BREATH_G
      01000555H   PUBLIC    CODE     ---       _LED_LOOP_G
      0100063BH   PUBLIC    CODE     ---       LED_BREATH_R
      010004E2H   PUBLIC    CODE     ---       _LED_LOOP_R
      00000008H   PUBLIC    DATA     BYTE      ?_LED_LOOP?BYTE
      0100000EH   PUBLIC    CODE     ---       _LED_LOOP
      010000F9H   PUBLIC    CODE     ---       disp
      01000A2EH   PUBLIC    CODE     ---       KEY_Scan
      01000A8EH   PUBLIC    CODE     ---       _Delay
      010009EBH   PUBLIC    CODE     ---       _delay_ms
      01000AA3H   PUBLIC    CODE     ---       _delay_us
      0100094BH   PUBLIC    CODE     ---       GPIO_Init
      00000098H.3 SFRSYM    DATA     BIT       TB08
      000000C8H   SFRSYM    DATA     BIT       T2I0
      000000C3H   SFRSYM    DATA     BYTE      CCH1
      00000080H   SFRSYM    DATA     BYTE      P0
      000000C8H.1 SFRSYM    DATA     BIT       T2I1
      00000098H.7 SFRSYM    DATA     BIT       SM00
      000000C5H   SFRSYM    DATA     BYTE      CCH2
      00000090H   SFRSYM    DATA     BYTE      P1
      00000098H.6 SFRSYM    DATA     BIT       SM01
      000000C7H   SFRSYM    DATA     BYTE      CCH3
      000000ACH   SFRSYM    DATA     BYTE      P0EXTIE
      000000A0H   SFRSYM    DATA     BYTE      P2
      00000098H.5 SFRSYM    DATA     BIT       SM02
      000000BDH   SFRSYM    DATA     BYTE      WKTCH
      000000B4H   SFRSYM    DATA     BYTE      P0EXTIF
      000000B0H   SFRSYM    DATA     BYTE      P3
      000000ADH   SFRSYM    DATA     BYTE      P1EXTIE
      000000D0H.6 SFRSYM    DATA     BIT       AC
      000000FFH   SFRSYM    DATA     BYTE      MCTRL
      000000C2H   SFRSYM    DATA     BYTE      CCL1
      000000B5H   SFRSYM    DATA     BYTE      P1EXTIF
      000000AEH   SFRSYM    DATA     BYTE      P2EXTIE
      000000C4H   SFRSYM    DATA     BYTE      CCL2
      000000B6H   SFRSYM    DATA     BYTE      P2EXTIF
      000000AFH   SFRSYM    DATA     BYTE      P3EXTIE
      000000A8H.7 SFRSYM    DATA     BIT       EA
      000000CCH   SFRSYM    DATA     WORD      T2
      000000C6H   SFRSYM    DATA     BYTE      CCL3
      000000B7H   SFRSYM    DATA     BYTE      P3EXTIF
      000000AAH   SFRSYM    DATA     BYTE      EIE2
      000000BCH   SFRSYM    DATA     BYTE      WKTCL
      000000B2H   SFRSYM    DATA     BYTE      EIF2
      000000C8H.3 SFRSYM    DATA     BIT       T2R0
      000000C8H.4 SFRSYM    DATA     BIT       T2R1
      00000083H   SFRSYM    DATA     BYTE      DPH0
      000000A8H   SFRSYM    DATA     BYTE      IE
      00000085H   SFRSYM    DATA     BYTE      DPH1
LX51 LINKER/LOCATER V4.66.66.0                                                        04/26/2020  19:18:32  PAGE 9


      00000080H   SFRSYM    DATA     BIT       P0_0
      000000B9H   SFRSYM    DATA     BYTE      EIP1
      00000090H   SFRSYM    DATA     BIT       P1_0
      00000080H.1 SFRSYM    DATA     BIT       P0_1
      000000BAH   SFRSYM    DATA     BYTE      EIP2
      00000082H   SFRSYM    DATA     BYTE      DPL0
      000000A0H   SFRSYM    DATA     BIT       P2_0
      00000090H.1 SFRSYM    DATA     BIT       P1_1
      00000080H.2 SFRSYM    DATA     BIT       P0_2
      00000084H   SFRSYM    DATA     BYTE      DPL1
      000000B0H   SFRSYM    DATA     BIT       P3_0
      000000A0H.1 SFRSYM    DATA     BIT       P2_1
      00000090H.2 SFRSYM    DATA     BIT       P1_2
      00000080H.3 SFRSYM    DATA     BIT       P0_3
      000000B0H.1 SFRSYM    DATA     BIT       P3_1
      000000A0H.2 SFRSYM    DATA     BIT       P2_2
      00000090H.3 SFRSYM    DATA     BIT       P1_3
      00000080H.4 SFRSYM    DATA     BIT       P0_4
      000000C8H.6 SFRSYM    DATA     BIT       I3FR
      000000B0H.2 SFRSYM    DATA     BIT       P3_2
      000000A0H.3 SFRSYM    DATA     BIT       P2_3
      00000090H.4 SFRSYM    DATA     BIT       P1_4
      00000080H.5 SFRSYM    DATA     BIT       P0_5
      000000CFH   SFRSYM    DATA     BYTE      T2IE
      00000096H   SFRSYM    DATA     BYTE      TA
      00000098H.4 SFRSYM    DATA     BIT       REN0
      000000B0H.3 SFRSYM    DATA     BIT       P3_3
      000000A0H.4 SFRSYM    DATA     BIT       P2_4
      00000090H.5 SFRSYM    DATA     BIT       P1_5
      00000080H.6 SFRSYM    DATA     BIT       P0_6
      000000C9H   SFRSYM    DATA     BYTE      T2IF
      000000C8H.2 SFRSYM    DATA     BIT       T2CM
      000000B0H.4 SFRSYM    DATA     BIT       P3_4
      000000A0H.5 SFRSYM    DATA     BIT       P2_5
      00000090H.6 SFRSYM    DATA     BIT       P1_6
      00000080H.7 SFRSYM    DATA     BIT       P0_7
      000000DFH   SFRSYM    DATA     BYTE      ADCON0
      000000B0H.5 SFRSYM    DATA     BIT       P3_5
      000000A0H.6 SFRSYM    DATA     BIT       P2_6
      00000090H.7 SFRSYM    DATA     BIT       P1_7
      000000DEH   SFRSYM    DATA     BYTE      ADCON1
      000000B0H.6 SFRSYM    DATA     BIT       P3_6
      000000A0H.7 SFRSYM    DATA     BIT       P2_7
      000000E9H   SFRSYM    DATA     BYTE      ADCON2
      000000B8H   SFRSYM    DATA     BYTE      IP
      000000B0H.7 SFRSYM    DATA     BIT       P3_7
      000000CEH   SFRSYM    DATA     BYTE      CCEN
      000000D6H   SFRSYM    DATA     BYTE      CAPCR0
      000000D0H.7 SFRSYM    DATA     BIT       CY
      000000D7H   SFRSYM    DATA     BYTE      CAPCR1
      000000D2H   SFRSYM    DATA     BYTE      T34MOD
      00000093H   SFRSYM    DATA     BYTE      DPX0
      00000095H   SFRSYM    DATA     BYTE      DPX1
      000000F4H   SFRSYM    DATA     BYTE      I2CMSA
      000000F5H   SFRSYM    DATA     BYTE      I2CMCR
      00000081H   SFRSYM    DATA     BYTE      SP
      000000D0H.2 SFRSYM    DATA     BIT       OV
      000000FCH   SFRSYM    DATA     WORD      MADR
      000000F2H   SFRSYM    DATA     BYTE      I2CSCR
      000000C8H.7 SFRSYM    DATA     BIT       T2PS
      000000D1H   SFRSYM    DATA     BYTE      ADCMPC
      000000CBH   SFRSYM    DATA     BYTE      RLDH
      000000D5H   SFRSYM    DATA     BYTE      ADCMPH
      000000CAH   SFRSYM    DATA     BYTE      RLDL
      000000FBH   SFRSYM    DATA     BYTE      MAIN_LOCK
LX51 LINKER/LOCATER V4.66.66.0                                                        04/26/2020  19:18:32  PAGE 10


      000000F7H   SFRSYM    DATA     BYTE      I2CMTP
      00000099H   SFRSYM    DATA     BYTE      SBUF
      00000087H   SFRSYM    DATA     BYTE      PCON
      000000D4H   SFRSYM    DATA     BYTE      ADCMPL
      00000098H   SFRSYM    DATA     BYTE      SCON
      00000089H   SFRSYM    DATA     BYTE      TMOD
      00000088H   SFRSYM    DATA     BYTE      TCON
      000000C2H   SFRSYM    DATA     WORD      CC1
      000000C4H   SFRSYM    DATA     WORD      CC2
      000000C6H   SFRSYM    DATA     WORD      CC3
      000000ECH   SFRSYM    DATA     BYTE      SPCR
      000000DDH   SFRSYM    DATA     BYTE      ADRESH
      000000EEH   SFRSYM    DATA     BYTE      SPDR
      000000EFH   SFRSYM    DATA     BYTE      SSCR
      000000D3H   SFRSYM    DATA     BYTE      ADDLYL
      000000DCH   SFRSYM    DATA     BYTE      ADRESL
      00000088H.1 SFRSYM    DATA     BIT       IE0
      00000088H.3 SFRSYM    DATA     BIT       IE1
      0000008FH   SFRSYM    DATA     BYTE      CLKDIV
      000000F0H   SFRSYM    DATA     BYTE      B
      00000091H   SFRSYM    DATA     BYTE      FUNCCR
      0000009AH   SFRSYM    DATA     BYTE      P0TRIS
      000000A1H   SFRSYM    DATA     BYTE      P1TRIS
      000000A2H   SFRSYM    DATA     BYTE      P2TRIS
      000000E0H   SFRSYM    DATA     BYTE      ACC
      000000A3H   SFRSYM    DATA     BYTE      P3TRIS
      000000A8H.4 SFRSYM    DATA     BIT       ES0
      000000A8H.6 SFRSYM    DATA     BIT       ES1
      000000A8H.1 SFRSYM    DATA     BIT       ET0
      000000EDH   SFRSYM    DATA     BYTE      SPSR
      000000A8H.3 SFRSYM    DATA     BIT       ET1
      00000088H.5 SFRSYM    DATA     BIT       TF0
      000000A8H.5 SFRSYM    DATA     BIT       ET2
      00000098H   SFRSYM    DATA     BIT       RI0
      00000088H.7 SFRSYM    DATA     BIT       TF1
      0000008CH   SFRSYM    DATA     BYTE      TH0
      000000A8H   SFRSYM    DATA     BIT       EX0
      00000098H.1 SFRSYM    DATA     BIT       TI0
      00000088H   SFRSYM    DATA     BIT       IT0
      0000008DH   SFRSYM    DATA     BYTE      TH1
      000000A8H.2 SFRSYM    DATA     BIT       EX1
      00000088H.2 SFRSYM    DATA     BIT       IT1
      000000CDH   SFRSYM    DATA     BYTE      TH2
      000000D0H   SFRSYM    DATA     BIT       P
      000000DBH   SFRSYM    DATA     BYTE      TH3
      000000E3H   SFRSYM    DATA     BYTE      TH4
      0000008AH   SFRSYM    DATA     BYTE      TL0
      00000097H   SFRSYM    DATA     BYTE      WDTCON
      0000008BH   SFRSYM    DATA     BYTE      TL1
      00000098H.2 SFRSYM    DATA     BIT       U0RB8
      000000CCH   SFRSYM    DATA     BYTE      TL2
      000000B8H.4 SFRSYM    DATA     BIT       PS0
      000000DAH   SFRSYM    DATA     BYTE      TL3
      000000BFH   SFRSYM    DATA     BYTE      BUZCON
      000000B8H.6 SFRSYM    DATA     BIT       PS1
      000000B8H.1 SFRSYM    DATA     BIT       PT0
      00000098H.3 SFRSYM    DATA     BIT       U0TB8
      000000E2H   SFRSYM    DATA     BYTE      TL4
      000000D0H.3 SFRSYM    DATA     BIT       RS0
      000000B8H.3 SFRSYM    DATA     BIT       PT1
      000000D0H.4 SFRSYM    DATA     BIT       RS1
      000000B8H.5 SFRSYM    DATA     BIT       PT2
      00000098H.7 SFRSYM    DATA     BIT       U0SM0
      00000088H.4 SFRSYM    DATA     BIT       TR0
      000000BEH   SFRSYM    DATA     BYTE      BUZDIV
LX51 LINKER/LOCATER V4.66.66.0                                                        04/26/2020  19:18:32  PAGE 11


      00000098H.6 SFRSYM    DATA     BIT       U0SM1
      00000088H.6 SFRSYM    DATA     BIT       TR1
      000000B8H   SFRSYM    DATA     BIT       PX0
      00000098H.5 SFRSYM    DATA     BIT       U0SM2
      000000B8H.2 SFRSYM    DATA     BIT       PX1
      00000099H   SFRSYM    DATA     BYTE      SBUF0
      000000CAH   SFRSYM    DATA     WORD      RLD
      000000EBH   SFRSYM    DATA     BYTE      SBUF1
      00000098H   SFRSYM    DATA     BYTE      SCON0
      000000EAH   SFRSYM    DATA     BYTE      SCON1
      000000D4H   SFRSYM    DATA     WORD      ADCMP
      000000CAH   SFRSYM    DATA     WORD      RCR
      000000C8H   SFRSYM    DATA     BYTE      T2CON
      00000086H   SFRSYM    DATA     BYTE      DPS
      000000FEH   SFRSYM    DATA     BYTE      MDATA
      000000F6H   SFRSYM    DATA     BYTE      I2CMBUF
      000000F1H   SFRSYM    DATA     BYTE      I2CSADR
      00000098H.4 SFRSYM    DATA     BIT       U0REN
      00000082H   SFRSYM    DATA     WORD      DPTR0
      00000084H   SFRSYM    DATA     WORD      DPTR1
      000000C8H.5 SFRSYM    DATA     BIT       CAPES
      000000FDH   SFRSYM    DATA     BYTE      MADRH
      0000008EH   SFRSYM    DATA     BYTE      CKCON
      000000DCH   SFRSYM    DATA     WORD      ADRES
      000000F3H   SFRSYM    DATA     BYTE      I2CSBUF
      000000FCH   SFRSYM    DATA     BYTE      MADRL
      000000D0H.5 SFRSYM    DATA     BIT       F0
      000000D0H   SFRSYM    DATA     BYTE      PSW
      00000098H.2 SFRSYM    DATA     BIT       RB08
      00000097H   SFRSYM    DATA     BYTE      WDCON
      0000001BH   SYMBOL    DATA     BYTE      startFlag
      0000001CH   SYMBOL    DATA     BYTE      vlee
      0000001FH   SYMBOL    DATA     WORD      num

      0100094BH   BLOCK     CODE     ---       LVL=0
      0100094BH   LINE      CODE     ---       #71
      0100094BH   LINE      CODE     ---       #72
      0100094BH   LINE      CODE     ---       #73
      0100094EH   LINE      CODE     ---       #74
      01000954H   LINE      CODE     ---       #75
      01000957H   LINE      CODE     ---       #77
      0100095AH   LINE      CODE     ---       #78
      01000960H   LINE      CODE     ---       #79
      01000963H   LINE      CODE     ---       #81
      01000966H   LINE      CODE     ---       #82
      0100096DH   LINE      CODE     ---       #83
      01000972H   LINE      CODE     ---       #85
      01000975H   LINE      CODE     ---       #86
      0100097BH   LINE      CODE     ---       #87
      0100097EH   LINE      CODE     ---       #88
      01000982H   LINE      CODE     ---       #90
      01000994H   LINE      CODE     ---       #92
      01000996H   LINE      CODE     ---       #93
      01000998H   LINE      CODE     ---       #94
      0100099BH   LINE      CODE     ---       #95
      ---         BLOCKEND  ---      ---       LVL=0

      01000AA3H   BLOCK     CODE     ---       LVL=0
      0000006DH   SYMBOL    DATA     WORD      a
      01000AA3H   LINE      CODE     ---       #98
      01000AA7H   LINE      CODE     ---       #99
      01000AA7H   LINE      CODE     ---       #101
      01000AB6H   LINE      CODE     ---       #102
      ---         BLOCKEND  ---      ---       LVL=0

LX51 LINKER/LOCATER V4.66.66.0                                                        04/26/2020  19:18:32  PAGE 12


      010009EBH   BLOCK     CODE     ---       LVL=0
      00000069H   SYMBOL    DATA     WORD      ms
      010009EFH   BLOCK     CODE     NEAR LAB  LVL=1
      0000006BH   SYMBOL    DATA     WORD      ti
      ---         BLOCKEND  ---      ---       LVL=1
      010009EBH   LINE      CODE     ---       #105
      010009EFH   LINE      CODE     ---       #106
      010009EFH   LINE      CODE     ---       #109
      010009FEH   LINE      CODE     ---       #110
      010009FEH   LINE      CODE     ---       #111
      01000A07H   LINE      CODE     ---       #112
      01000A22H   LINE      CODE     ---       #113
      01000A26H   LINE      CODE     ---       #114
      01000A26H   LINE      CODE     ---       #116
      01000A29H   LINE      CODE     ---       #117
      01000A29H   LINE      CODE     ---       #119
      01000A2BH   LINE      CODE     ---       #120
      01000A2DH   LINE      CODE     ---       #121
      ---         BLOCKEND  ---      ---       LVL=0

      01000A8EH   BLOCK     CODE     ---       LVL=0
      0000006FH   SYMBOL    DATA     WORD      nCount
      01000A8EH   LINE      CODE     ---       #124
      01000A92H   LINE      CODE     ---       #125
      01000A92H   LINE      CODE     ---       #126
      01000AA2H   LINE      CODE     ---       #127
      ---         BLOCKEND  ---      ---       LVL=0

      01000A2EH   BLOCK     CODE     ---       LVL=0
      01000A2EH   LINE      CODE     ---       #129
      01000A2EH   LINE      CODE     ---       #130
      01000A2EH   LINE      CODE     ---       #131
      01000A31H   LINE      CODE     ---       #132
      01000A31H   LINE      CODE     ---       #134
      01000A39H   LINE      CODE     ---       #135
      01000A47H   LINE      CODE     ---       #136
      01000A47H   LINE      CODE     ---       #138
      01000A4DH   LINE      CODE     ---       #139
      01000A50H   LINE      CODE     ---       #142
      01000A51H   LINE      CODE     ---       #144
      01000A51H   LINE      CODE     ---       #145
      01000A57H   LINE      CODE     ---       #146
      01000A57H   LINE      CODE     ---       #148
      01000A58H   LINE      CODE     ---       #150
      01000A58H   LINE      CODE     ---       #151
      01000A5EH   LINE      CODE     ---       #152
      01000A5EH   LINE      CODE     ---       #153
      ---         BLOCKEND  ---      ---       LVL=0

      010000F9H   BLOCK     CODE     ---       LVL=0
      010000F9H   LINE      CODE     ---       #156
      010000F9H   LINE      CODE     ---       #157
      010000F9H   LINE      CODE     ---       #159
      010000FCH   LINE      CODE     ---       #161
      01000102H   LINE      CODE     ---       #162
      0100010FH   LINE      CODE     ---       #163
      01000126H   LINE      CODE     ---       #164
      0100013FH   LINE      CODE     ---       #165
      01000151H   LINE      CODE     ---       #166
      01000165H   LINE      CODE     ---       #167
      0100017BH   LINE      CODE     ---       #168
      0100018DH   LINE      CODE     ---       #169
      010001A1H   LINE      CODE     ---       #170
      010001ADH   LINE      CODE     ---       #171
      010001B7H   LINE      CODE     ---       #172
LX51 LINKER/LOCATER V4.66.66.0                                                        04/26/2020  19:18:32  PAGE 13


      010001B7H   LINE      CODE     ---       #173
      010001BDH   LINE      CODE     ---       #175
      010001BDH   LINE      CODE     ---       #176
      010001BDH   LINE      CODE     ---       #177
      ---         BLOCKEND  ---      ---       LVL=0

      0100000EH   BLOCK     CODE     ---       LVL=0
      00000008H   SYMBOL    DATA     WORD      on
      0000000AH   SYMBOL    DATA     WORD      off
      0000000CH   SYMBOL    DATA     ---       list
      0000000FH   SYMBOL    DATA     BYTE      sz
      0100001CH   BLOCK     CODE     NEAR LAB  LVL=1
      00000010H   SYMBOL    DATA     INT       totalTime
      00000012H   SYMBOL    DATA     INT       Z
      00000014H   SYMBOL    DATA     INT       h
      00000016H   SYMBOL    DATA     INT       index
      ---         BLOCKEND  ---      ---       LVL=1
      0100000EH   LINE      CODE     ---       #179
      0100001CH   LINE      CODE     ---       #180
      0100001CH   LINE      CODE     ---       #183
      01000028H   LINE      CODE     ---       #184
      0100003DH   LINE      CODE     ---       #186
      01000057H   LINE      CODE     ---       #187
      01000057H   LINE      CODE     ---       #188
      01000070H   LINE      CODE     ---       #189
      01000070H   LINE      CODE     ---       #190
      0100008AH   LINE      CODE     ---       #191
      01000094H   LINE      CODE     ---       #192
      010000A2H   LINE      CODE     ---       #193
      010000BBH   LINE      CODE     ---       #194
      010000BBH   LINE      CODE     ---       #195
      010000D5H   LINE      CODE     ---       #196
      010000DFH   LINE      CODE     ---       #197
      010000EDH   LINE      CODE     ---       #198
      010000F8H   LINE      CODE     ---       #199
      ---         BLOCKEND  ---      ---       LVL=0

      010004E2H   BLOCK     CODE     ---       LVL=0
      00000023H   SYMBOL    DATA     WORD      on
      00000025H   SYMBOL    DATA     WORD      off
      010004EAH   BLOCK     CODE     NEAR LAB  LVL=1
      00000027H   SYMBOL    DATA     INT       totalTime
      00000029H   SYMBOL    DATA     INT       Z
      0000002BH   SYMBOL    DATA     INT       h
      ---         BLOCKEND  ---      ---       LVL=1
      010004E2H   LINE      CODE     ---       #202
      010004EAH   LINE      CODE     ---       #203
      010004EAH   LINE      CODE     ---       #204
      010004F6H   LINE      CODE     ---       #205
      0100050BH   LINE      CODE     ---       #207
      01000522H   LINE      CODE     ---       #208
      01000522H   LINE      CODE     ---       #209
      01000528H   LINE      CODE     ---       #210
      01000536H   LINE      CODE     ---       #211
      0100053CH   LINE      CODE     ---       #212
      0100054AH   LINE      CODE     ---       #213
      01000554H   LINE      CODE     ---       #215
      ---         BLOCKEND  ---      ---       LVL=0

      0100063BH   BLOCK     CODE     ---       LVL=0
      0100063BH   LINE      CODE     ---       #217
      0100063BH   LINE      CODE     ---       #218
      0100063BH   LINE      CODE     ---       #220
      01000641H   LINE      CODE     ---       #221
      01000641H   LINE      CODE     ---       #222
LX51 LINKER/LOCATER V4.66.66.0                                                        04/26/2020  19:18:32  PAGE 14


      01000641H   LINE      CODE     ---       #223
      01000646H   LINE      CODE     ---       #224
      01000652H   LINE      CODE     ---       #225
      01000664H   LINE      CODE     ---       #227
      0100066FH   LINE      CODE     ---       #228
      01000671H   LINE      CODE     ---       #229
      01000673H   LINE      CODE     ---       #231
      01000679H   LINE      CODE     ---       #232
      01000679H   LINE      CODE     ---       #233
      01000679H   LINE      CODE     ---       #234
      0100067EH   LINE      CODE     ---       #235
      0100068AH   LINE      CODE     ---       #236
      0100069CH   LINE      CODE     ---       #237
      010006A7H   LINE      CODE     ---       #238
      010006A8H   LINE      CODE     ---       #239
      010006AAH   LINE      CODE     ---       #241
      ---         BLOCKEND  ---      ---       LVL=0

      01000555H   BLOCK     CODE     ---       LVL=0
      0000002DH   SYMBOL    DATA     WORD      on
      0000002FH   SYMBOL    DATA     WORD      off
      0100055DH   BLOCK     CODE     NEAR LAB  LVL=1
      00000031H   SYMBOL    DATA     INT       totalTime
      00000033H   SYMBOL    DATA     INT       Z
      00000035H   SYMBOL    DATA     INT       h
      ---         BLOCKEND  ---      ---       LVL=1
      01000555H   LINE      CODE     ---       #248
      0100055DH   LINE      CODE     ---       #249
      0100055DH   LINE      CODE     ---       #250
      01000569H   LINE      CODE     ---       #251
      0100057EH   LINE      CODE     ---       #253
      01000595H   LINE      CODE     ---       #254
      01000595H   LINE      CODE     ---       #255
      0100059BH   LINE      CODE     ---       #256
      010005A9H   LINE      CODE     ---       #257
      010005AFH   LINE      CODE     ---       #258
      010005BDH   LINE      CODE     ---       #259
      010005C7H   LINE      CODE     ---       #261
      ---         BLOCKEND  ---      ---       LVL=0

      010006ABH   BLOCK     CODE     ---       LVL=0
      010006ABH   LINE      CODE     ---       #265
      010006ABH   LINE      CODE     ---       #266
      010006ABH   LINE      CODE     ---       #268
      010006B1H   LINE      CODE     ---       #269
      010006B1H   LINE      CODE     ---       #270
      010006B1H   LINE      CODE     ---       #271
      010006B6H   LINE      CODE     ---       #272
      010006C2H   LINE      CODE     ---       #273
      010006D4H   LINE      CODE     ---       #274
      010006DFH   LINE      CODE     ---       #275
      010006E1H   LINE      CODE     ---       #276
      010006E3H   LINE      CODE     ---       #279
      010006E9H   LINE      CODE     ---       #280
      010006E9H   LINE      CODE     ---       #281
      010006E9H   LINE      CODE     ---       #282
      010006EEH   LINE      CODE     ---       #283
      010006FAH   LINE      CODE     ---       #284
      0100070CH   LINE      CODE     ---       #285
      01000717H   LINE      CODE     ---       #286
      01000718H   LINE      CODE     ---       #287
      0100071AH   LINE      CODE     ---       #289
      ---         BLOCKEND  ---      ---       LVL=0

      010005C8H   BLOCK     CODE     ---       LVL=0
LX51 LINKER/LOCATER V4.66.66.0                                                        04/26/2020  19:18:32  PAGE 15


      00000037H   SYMBOL    DATA     WORD      on
      00000039H   SYMBOL    DATA     WORD      off
      010005D0H   BLOCK     CODE     NEAR LAB  LVL=1
      0000003BH   SYMBOL    DATA     INT       totalTime
      0000003DH   SYMBOL    DATA     INT       Z
      0000003FH   SYMBOL    DATA     INT       h
      ---         BLOCKEND  ---      ---       LVL=1
      010005C8H   LINE      CODE     ---       #292
      010005D0H   LINE      CODE     ---       #293
      010005D0H   LINE      CODE     ---       #295
      010005DCH   LINE      CODE     ---       #296
      010005F1H   LINE      CODE     ---       #298
      01000608H   LINE      CODE     ---       #299
      01000608H   LINE      CODE     ---       #300
      0100060EH   LINE      CODE     ---       #301
      0100061CH   LINE      CODE     ---       #302
      01000622H   LINE      CODE     ---       #303
      01000630H   LINE      CODE     ---       #304
      0100063AH   LINE      CODE     ---       #306
      ---         BLOCKEND  ---      ---       LVL=0

      0100071BH   BLOCK     CODE     ---       LVL=0
      0100071BH   LINE      CODE     ---       #308
      0100071BH   LINE      CODE     ---       #309
      0100071BH   LINE      CODE     ---       #311
      01000721H   LINE      CODE     ---       #312
      01000721H   LINE      CODE     ---       #313
      01000721H   LINE      CODE     ---       #314
      01000726H   LINE      CODE     ---       #315
      01000732H   LINE      CODE     ---       #316
      01000744H   LINE      CODE     ---       #317
      0100074FH   LINE      CODE     ---       #318
      01000751H   LINE      CODE     ---       #319
      01000753H   LINE      CODE     ---       #322
      01000759H   LINE      CODE     ---       #323
      01000759H   LINE      CODE     ---       #324
      01000759H   LINE      CODE     ---       #325
      0100075EH   LINE      CODE     ---       #326
      0100076AH   LINE      CODE     ---       #327
      0100077CH   LINE      CODE     ---       #328
      01000787H   LINE      CODE     ---       #329
      01000788H   LINE      CODE     ---       #330
      0100078AH   LINE      CODE     ---       #332
      ---         BLOCKEND  ---      ---       LVL=0

      01000365H   BLOCK     CODE     ---       LVL=0
      00000041H   SYMBOL    DATA     WORD      on
      00000043H   SYMBOL    DATA     WORD      off
      0100036DH   BLOCK     CODE     NEAR LAB  LVL=1
      00000045H   SYMBOL    DATA     INT       totalTime
      00000047H   SYMBOL    DATA     INT       Z
      00000049H   SYMBOL    DATA     INT       h
      ---         BLOCKEND  ---      ---       LVL=1
      01000365H   LINE      CODE     ---       #334
      0100036DH   LINE      CODE     ---       #335
      0100036DH   LINE      CODE     ---       #337
      01000379H   LINE      CODE     ---       #338
      0100038EH   LINE      CODE     ---       #340
      010003A5H   LINE      CODE     ---       #341
      010003A5H   LINE      CODE     ---       #342
      010003B1H   LINE      CODE     ---       #343
      010003BFH   LINE      CODE     ---       #344
      010003CBH   LINE      CODE     ---       #345
      010003D9H   LINE      CODE     ---       #346
      010003E3H   LINE      CODE     ---       #348
LX51 LINKER/LOCATER V4.66.66.0                                                        04/26/2020  19:18:32  PAGE 16


      ---         BLOCKEND  ---      ---       LVL=0

      0100078BH   BLOCK     CODE     ---       LVL=0
      0100078BH   LINE      CODE     ---       #350
      0100078BH   LINE      CODE     ---       #351
      0100078BH   LINE      CODE     ---       #353
      01000791H   LINE      CODE     ---       #354
      01000791H   LINE      CODE     ---       #355
      01000791H   LINE      CODE     ---       #356
      01000796H   LINE      CODE     ---       #357
      010007A2H   LINE      CODE     ---       #358
      010007B4H   LINE      CODE     ---       #359
      010007BFH   LINE      CODE     ---       #360
      010007C1H   LINE      CODE     ---       #361
      010007C3H   LINE      CODE     ---       #364
      010007C9H   LINE      CODE     ---       #365
      010007C9H   LINE      CODE     ---       #366
      010007C9H   LINE      CODE     ---       #367
      010007CEH   LINE      CODE     ---       #368
      010007DAH   LINE      CODE     ---       #369
      010007ECH   LINE      CODE     ---       #370
      010007F7H   LINE      CODE     ---       #371
      010007F8H   LINE      CODE     ---       #372
      010007FAH   LINE      CODE     ---       #374
      ---         BLOCKEND  ---      ---       LVL=0

      010003E4H   BLOCK     CODE     ---       LVL=0
      0000004BH   SYMBOL    DATA     WORD      on
      0000004DH   SYMBOL    DATA     WORD      off
      010003ECH   BLOCK     CODE     NEAR LAB  LVL=1
      0000004FH   SYMBOL    DATA     INT       totalTime
      00000051H   SYMBOL    DATA     INT       Z
      00000053H   SYMBOL    DATA     INT       h
      ---         BLOCKEND  ---      ---       LVL=1
      010003E4H   LINE      CODE     ---       #377
      010003ECH   LINE      CODE     ---       #378
      010003ECH   LINE      CODE     ---       #380
      010003F8H   LINE      CODE     ---       #381
      0100040DH   LINE      CODE     ---       #383
      01000424H   LINE      CODE     ---       #384
      01000424H   LINE      CODE     ---       #385
      01000430H   LINE      CODE     ---       #386
      0100043EH   LINE      CODE     ---       #387
      0100044AH   LINE      CODE     ---       #388
      01000458H   LINE      CODE     ---       #389
      01000462H   LINE      CODE     ---       #391
      ---         BLOCKEND  ---      ---       LVL=0

      010007FBH   BLOCK     CODE     ---       LVL=0
      010007FBH   LINE      CODE     ---       #393
      010007FBH   LINE      CODE     ---       #394
      010007FBH   LINE      CODE     ---       #396
      01000801H   LINE      CODE     ---       #397
      01000801H   LINE      CODE     ---       #398
      01000801H   LINE      CODE     ---       #399
      01000806H   LINE      CODE     ---       #400
      01000812H   LINE      CODE     ---       #401
      01000824H   LINE      CODE     ---       #402
      0100082FH   LINE      CODE     ---       #403
      01000831H   LINE      CODE     ---       #404
      01000833H   LINE      CODE     ---       #407
      01000839H   LINE      CODE     ---       #408
      01000839H   LINE      CODE     ---       #409
      01000839H   LINE      CODE     ---       #410
      0100083EH   LINE      CODE     ---       #411
LX51 LINKER/LOCATER V4.66.66.0                                                        04/26/2020  19:18:32  PAGE 17


      0100084AH   LINE      CODE     ---       #412
      0100085CH   LINE      CODE     ---       #413
      01000867H   LINE      CODE     ---       #414
      01000868H   LINE      CODE     ---       #415
      0100086AH   LINE      CODE     ---       #417
      ---         BLOCKEND  ---      ---       LVL=0

      01000258H   BLOCK     CODE     ---       LVL=0
      00000055H   SYMBOL    DATA     WORD      on
      00000057H   SYMBOL    DATA     WORD      off
      01000260H   BLOCK     CODE     NEAR LAB  LVL=1
      00000059H   SYMBOL    DATA     INT       totalTime
      0000005BH   SYMBOL    DATA     INT       Z
      0000005DH   SYMBOL    DATA     INT       h
      ---         BLOCKEND  ---      ---       LVL=1
      01000258H   LINE      CODE     ---       #420
      01000260H   LINE      CODE     ---       #421
      01000260H   LINE      CODE     ---       #423
      0100026CH   LINE      CODE     ---       #424
      01000281H   LINE      CODE     ---       #426
      01000298H   LINE      CODE     ---       #427
      01000298H   LINE      CODE     ---       #428
      010002AAH   LINE      CODE     ---       #429
      010002B8H   LINE      CODE     ---       #430
      010002CAH   LINE      CODE     ---       #431
      010002D8H   LINE      CODE     ---       #432
      010002E2H   LINE      CODE     ---       #434
      ---         BLOCKEND  ---      ---       LVL=0

      0100086BH   BLOCK     CODE     ---       LVL=0
      0100086BH   LINE      CODE     ---       #436
      0100086BH   LINE      CODE     ---       #437
      0100086BH   LINE      CODE     ---       #439
      01000871H   LINE      CODE     ---       #440
      01000871H   LINE      CODE     ---       #441
      01000871H   LINE      CODE     ---       #442
      01000876H   LINE      CODE     ---       #443
      01000882H   LINE      CODE     ---       #444
      01000894H   LINE      CODE     ---       #445
      0100089FH   LINE      CODE     ---       #446
      010008A1H   LINE      CODE     ---       #447
      010008A3H   LINE      CODE     ---       #450
      010008A9H   LINE      CODE     ---       #451
      010008A9H   LINE      CODE     ---       #452
      010008A9H   LINE      CODE     ---       #453
      010008AEH   LINE      CODE     ---       #454
      010008BAH   LINE      CODE     ---       #455
      010008CCH   LINE      CODE     ---       #456
      010008D7H   LINE      CODE     ---       #457
      010008D8H   LINE      CODE     ---       #458
      010008DAH   LINE      CODE     ---       #460
      ---         BLOCKEND  ---      ---       LVL=0

      01000463H   BLOCK     CODE     ---       LVL=0
      0000005FH   SYMBOL    DATA     WORD      on
      00000061H   SYMBOL    DATA     WORD      off
      0100046BH   BLOCK     CODE     NEAR LAB  LVL=1
      00000063H   SYMBOL    DATA     INT       totalTime
      00000065H   SYMBOL    DATA     INT       Z
      00000067H   SYMBOL    DATA     INT       h
      ---         BLOCKEND  ---      ---       LVL=1
      01000463H   LINE      CODE     ---       #463
      0100046BH   LINE      CODE     ---       #464
      0100046BH   LINE      CODE     ---       #466
      01000477H   LINE      CODE     ---       #467
LX51 LINKER/LOCATER V4.66.66.0                                                        04/26/2020  19:18:32  PAGE 18


      0100048CH   LINE      CODE     ---       #469
      010004A3H   LINE      CODE     ---       #470
      010004A3H   LINE      CODE     ---       #471
      010004AFH   LINE      CODE     ---       #472
      010004BDH   LINE      CODE     ---       #473
      010004C9H   LINE      CODE     ---       #474
      010004D7H   LINE      CODE     ---       #475
      010004E1H   LINE      CODE     ---       #477
      ---         BLOCKEND  ---      ---       LVL=0

      010008DBH   BLOCK     CODE     ---       LVL=0
      010008DBH   LINE      CODE     ---       #479
      010008DBH   LINE      CODE     ---       #480
      010008DBH   LINE      CODE     ---       #482
      010008E1H   LINE      CODE     ---       #483
      010008E1H   LINE      CODE     ---       #484
      010008E1H   LINE      CODE     ---       #485
      010008E6H   LINE      CODE     ---       #486
      010008F2H   LINE      CODE     ---       #487
      01000904H   LINE      CODE     ---       #488
      0100090FH   LINE      CODE     ---       #489
      01000911H   LINE      CODE     ---       #490
      01000913H   LINE      CODE     ---       #493
      01000919H   LINE      CODE     ---       #494
      01000919H   LINE      CODE     ---       #495
      01000919H   LINE      CODE     ---       #496
      0100091EH   LINE      CODE     ---       #497
      0100092AH   LINE      CODE     ---       #498
      0100093CH   LINE      CODE     ---       #499
      01000947H   LINE      CODE     ---       #500
      01000948H   LINE      CODE     ---       #501
      0100094AH   LINE      CODE     ---       #503
      ---         BLOCKEND  ---      ---       LVL=0

      0100099CH   BLOCK     CODE     ---       LVL=0
      0100099CH   LINE      CODE     ---       #508
      0100099CH   LINE      CODE     ---       #509
      0100099CH   LINE      CODE     ---       #510
      010009A5H   LINE      CODE     ---       #511
      010009A8H   LINE      CODE     ---       #512
      010009ABH   LINE      CODE     ---       #513
      010009AEH   LINE      CODE     ---       #518
      010009AEH   LINE      CODE     ---       #519
      010009AEH   LINE      CODE     ---       #522
      010009B7H   LINE      CODE     ---       #524
      010009BBH   LINE      CODE     ---       #525
      010009BBH   LINE      CODE     ---       #527
      010009BEH   LINE      CODE     ---       #528
      010009C2H   LINE      CODE     ---       #529
      010009C5H   LINE      CODE     ---       #530
      010009C9H   LINE      CODE     ---       #531
      010009CCH   LINE      CODE     ---       #532
      010009D0H   LINE      CODE     ---       #533
      010009D3H   LINE      CODE     ---       #534
      010009D7H   LINE      CODE     ---       #535
      010009DAH   LINE      CODE     ---       #536
      010009DEH   LINE      CODE     ---       #537
      010009E1H   LINE      CODE     ---       #538
      010009E5H   LINE      CODE     ---       #539
      010009E8H   LINE      CODE     ---       #540
      010009E8H   LINE      CODE     ---       #543
      010009EAH   LINE      CODE     ---       #546
      ---         BLOCKEND  ---      ---       LVL=0

      01000AB7H   BLOCK     CODE     ---       LVL=0
LX51 LINKER/LOCATER V4.66.66.0                                                        04/26/2020  19:18:32  PAGE 19


      01000AB7H   LINE      CODE     ---       #556
      01000AB7H   LINE      CODE     ---       #557
      01000AB7H   LINE      CODE     ---       #559
      01000ABAH   LINE      CODE     ---       #562
      01000ABDH   LINE      CODE     ---       #566
      01000AC0H   LINE      CODE     ---       #567
      01000AC3H   LINE      CODE     ---       #569
      01000AC6H   LINE      CODE     ---       #572
      ---         BLOCKEND  ---      ---       LVL=0

      01000AC7H   BLOCK     CODE     ---       LVL=0
      01000AC7H   LINE      CODE     ---       #580
      01000AC7H   LINE      CODE     ---       #581
      01000AC7H   LINE      CODE     ---       #582
      01000ACAH   LINE      CODE     ---       #585
      01000ACDH   LINE      CODE     ---       #588
      01000ACFH   LINE      CODE     ---       #590
      ---         BLOCKEND  ---      ---       LVL=0

      01000A5FH   BLOCK     CODE     ---       LVL=0
      01000A5FH   LINE      CODE     ---       #599
      01000A5FH   LINE      CODE     ---       #602
      01000A62H   LINE      CODE     ---       #603
      01000A65H   LINE      CODE     ---       #606
      01000A68H   LINE      CODE     ---       #607
      01000A68H   LINE      CODE     ---       #608
      01000A6BH   LINE      CODE     ---       #609
      01000A71H   LINE      CODE     ---       #613
      01000A73H   LINE      CODE     ---       #615
      01000A73H   LINE      CODE     ---       #616
      01000A76H   LINE      CODE     ---       #620
      01000A76H   LINE      CODE     ---       #622
      ---         BLOCKEND  ---      ---       LVL=0

      ---         MODULE    ---      ---       ?C_INIT
      01000213H   PUBLIC    CODE     ---       ?C_START

      ---         MODULE    ---      ---       ?C?UIDIV
      010002E3H   PUBLIC    CODE     ---       ?C?UIDIV

      ---         MODULE    ---      ---       ?C?ISTOPTR
      01000338H   PUBLIC    CODE     ---       ?C?ISTOPTR



*** WARNING L57: UNCALLED FUNCTION, IGNORED FOR OVERLAY PROCESS
    NAME:    _DELAY_US/LED

*** WARNING L57: UNCALLED FUNCTION, IGNORED FOR OVERLAY PROCESS
    NAME:    KEY_SCAN/LED

*** WARNING L57: UNCALLED FUNCTION, IGNORED FOR OVERLAY PROCESS
    NAME:    DISP/LED

*** WARNING L57: UNCALLED FUNCTION, IGNORED FOR OVERLAY PROCESS
    NAME:    _LED_LOOP/LED

Program Size: data=114.0 xdata=0 const=0 code=2760
LX51 RUN COMPLETE.  4 WARNING(S),  0 ERROR(S)
