Microchip MPLAB XC8 Compiler V1.45 ()

Linker command line:

-W-9 \
  --edf=C:\mcuproject\scm\SCMCU_IDE_V2.00.16_Beta5\SCMCU_IDE_V2.00.16_Beta5\data\dat\en_msgs.txt \
  -cs -h+C103_8F083_tssop20_.sym --cmf=C103_8F083_tssop20_.cmf -z -QSC8F083 \
  -oC:\Users\hhmm6\AppData\Local\Temp\sj44.2 -MC103_8F083_tssop20_.map -E1 \
  -ver=XC8 -ASTACK=0A0h-0efh -pstack=STACK -ACODE=00h-07FFhx2 \
  -ASTRCODE=00h-0FFFh -ASTRING=00h-0FFhx16 -ACONST=00h-0FFhx16 \
  -AENTRY=00h-0FFhx16 -ACOMMON=070h-07Fh -ABANK0=020h-06Fh \
  -ABANK1=0A0h-0EFh -ABANK2=0120h-016Fh \
  -ARAM=020h-06Fh,0A0h-0EFh,0120h-016Fh \
  -AABS1=020h-07Fh,0A0h-0EFh,0120h-016Fh -ASFR0=00h-01Fh -ASFR1=080h-09Fh \
  -ASFR2=0100h-011Fh -ASFR3=0180h-01EFh \
  -preset_vec=00h,intentry=04h,init,end_init -ppowerup=CODE -pcinit=CODE \
  -pfunctab=ENTRY -ACONFIG=02007h-02008h -pconfig=CONFIG -DCONFIG=2 \
  -AIDLOC=02000h-02003h -pidloc=IDLOC -DIDLOC=2 -DCODE=2 -DSTRCODE=2 \
  -DSTRING=2 -DCONST=2 -DENTRY=2 -k startup.obj C103_8F083_tssop20_.obj 

Object code version is 3.11

Machine type is SC8F083



                Name                               Link     Load   Length Selector   Space Scale
startup.obj     end_init                              D        D        2        8       0
                reset_vec                             0        0        2        0       0
C103_8F083_tssop20_.obj
                cinit                                 F        F       15        8       0
                intentry                              4        4        9        8       0
                swtext2                             6C3      6C3       38      D86       0
                text20                              20E      20E      1A4        8       0
                text19                               24       24      1EA        8       0
                text14                              689      689       3A        8       0
                text12                              520      520       BE        8       0
                swtext1                             75C      75C       14      EB8       0
                text9                               5DE      5DE       AB        8       0
                text8                               6FB      6FB       36      DF6       0
                text1                               3B2      3B2      16E        8       0
                maintext                            731      731       2B      DF6       0
                cstackBANK0                          4E       4E        D       20       1
                cstackCOMMON                         70       70        8       70       1
                clrtext                             782      782        8      F04       0
                dataBANK0                            5B       5B        6       20       1
                bssBANK0                             20       20       2E       20       1
                bssCOMMON                            79       79        2       70       1
                bitbssCOMMON                        3C0       78        2       70       1     8
                nvBANK0                              61       61        1       20       1
                strings                             770      770       12      EE0       0

TOTAL           Name                               Link     Load   Length     Space
        CLASS   STACK          

        CLASS   CODE           
                end_init                              D        D        2         0
                cinit                                 F        F       15         0
                intentry                              4        4        9         0
                reset_vec                             0        0        2         0
                text20                              20E      20E      1A4         0
                text19                               24       24      1EA         0
                text14                              689      689       3A         0
                text12                              520      520       BE         0
                text9                               5DE      5DE       AB         0
                text8                               6FB      6FB       36         0
                text1                               3B2      3B2      16E         0
                maintext                            731      731       2B         0
                clrtext                             782      782        8         0

        CLASS   STRCODE        

        CLASS   STRING         
                strings                             770      770       12         0

        CLASS   CONST          
                swtext2                             6C3      6C3       38         0
                swtext1                             75C      75C       14         0

        CLASS   ENTRY          

        CLASS   COMMON         
                cstackCOMMON                         70       70        8         1
                bssCOMMON                            79       79        2         1
                bitbssCOMMON                        3C0       78        2         1

        CLASS   BANK0          
                cstackBANK0                          4E       4E        D         1
                dataBANK0                            5B       5B        6         1
                bssBANK0                             20       20       2E         1
                nvBANK0                              61       61        1         1

        CLASS   BANK1          

        CLASS   BANK2          

        CLASS   RAM            

        CLASS   ABS1           
                abs_s1                               7E       7E        2         1

        CLASS   SFR0           

        CLASS   SFR1           

        CLASS   SFR2           

        CLASS   SFR3           

        CLASS   CONFIG         

        CLASS   IDLOC          

        CLASS   BANK3          

        CLASS   EEDATA         



SEGMENTS        Name                           Load    Length   Top    Selector   Space  Class     Delta

                reset_vec                      000000  000002  000002         0       0  CODE        2
                intentry                       000004  0006BF  0006C3         8       0  CODE        2
                bssBANK0                       000020  000042  000062        20       1  BANK0       1
                cstackCOMMON                   000070  00000B  00007B        70       1  COMMON      1
                swtext2                        0006C3  000038  0006FB       D86       0  CONST       2
                text8                          0006FB  000061  00075C       DF6       0  CODE        2
                swtext1                        00075C  000014  000770       EB8       0  CONST       2
                strings                        000770  000012  000782       EE0       0  STRING      2
                clrtext                        000782  000008  00078A       F04       0  CODE        2


UNUSED ADDRESS RANGES

        Name                Unused          Largest block    Delta
        BANK0            062-06F             E           1
        BANK1            0A0-0EF            50           1
        BANK2            120-16F            50           1
        CODE             002-003             2           2
                         78A-FFF            76
        COMMON           07B-07D             3           1
        CONFIG           2007-2008             2           2
        CONST            002-003             2           2
                         78A-FFF           100
        ENTRY            002-003             2           2
                         78A-FFF           100
        IDLOC            2000-2003             4           2
        RAM              062-06F             E           1
                         0A0-0EF            50
                         120-16F            50
        SFR0             000-01F            20           1
        SFR1             080-09F            20           1
        SFR2             100-11F            20           1
        SFR3             180-1EF            70           1
        STACK            0A0-0EF            50           1
        STRCODE          002-003             2           2
                         78A-FFF           876
        STRING           002-003             2           2
                         78A-FFF           100

                                  Symbol Table

?___lwdiv                cstackCOMMON 073
?___lwmod                cstackCOMMON 073
?___wmul                 cstackCOMMON 073
ADC_Sample@ad_temp       cstackBANK0  059
ADC_Sample@adch          cstackBANK0  04F
ADC_Sample@adldo         cstackCOMMON 073
ADC_Sample@admax         cstackBANK0  057
ADC_Sample@admin         cstackBANK0  055
ADC_Sample@adsum         cstackBANK0  051
ADC_Sample@i             cstackBANK0  050
ADC_Sample@j             cstackBANK0  04E
PL10                     text1        512
PL12                     text19       202
PL14                     text1        519
PL16                     text9        681
PL18                     text9        685
PL2                      text19       1EA
PL20                     text19       209
PL4                      text20       3A7
PL6                      text19       1F9
PL8                      text1        509
_A1                      text20       2F1
_A2                      text20       2F6
_A3                      text20       2FB
_A4                      text20       300
_A5                      text20       305
_A6                      text20       30A
_A7                      text20       30F
_ADCON0                  (abs)        095
_ADCON1                  (abs)        096
_ADC_Sample              text19       0F0
_ADON                    (abs)        4A8
_ADRESH                  (abs)        099
_ADRESL                  (abs)        098
_B1                      text20       314
_B2                      text20       319
_B3                      text20       31E
_B4                      text20       323
_B5                      text20       328
_B6                      text20       32D
_B7                      text20       332
_B_MainLoop              bitbssCOMMON 3C1
_B_OnOff                 bitbssCOMMON 3C0
_C1                      text20       337
_C2                      text20       33C
_C3                      text20       341
_C4                      text20       34A
_C5                      text20       353
_C6                      text20       358
_C7                      text20       35D
_CHS4                    (abs)        4B6
_D1                      text20       365
_D2                      text20       36C
_D3                      text20       373
_D4                      text20       378
_D5                      text20       380
_D6                      text20       388
_D7                      text20       390
_GIE                     (abs)        05F
_GODONE                  (abs)        4A9
_INTCON                  (abs)        00B
_IOCA                    (abs)        089
_IOCB                    (abs)        009
_Init_System             text1        4F1
_Isr_Timer               text20       20E
_LDO_EN                  (abs)        4B2
_MainTime                bssBANK0     04C
_OPTION_REG              (abs)        001
_OSCCON                  (abs)        014
_PEIE                    (abs)        05E
_PIE1                    (abs)        00E
_PIR1                    (abs)        00D
_PORTA                   (abs)        086
_PORTB                   (abs)        006
_PORTC                   (abs)        106
_PR2                     (abs)        011
_PWMCON0                 (abs)        015
_PWMCON1                 (abs)        016
_PWMCON2                 (abs)        01D
_PWMD01H                 (abs)        01E
_PWMD1L                  (abs)        01A
_PWMTH                   (abs)        018
_PWMTL                   (abs)        017
_RA4                     (abs)        434
_RA5                     (abs)        435
_RA6                     (abs)        436
_RAIE                    (abs)        073
_RAIF                    (abs)        06B
_RB0                     (abs)        030
_RB1                     (abs)        031
_RB2                     (abs)        032
_RB3                     (abs)        033
_RB4                     (abs)        034
_RB5                     (abs)        035
_RB6                     (abs)        036
_RB7                     (abs)        037
_R_AIN2_DATA             bssBANK0     032
_R_AIN6_DATA             bssBANK0     030
_Sleep_Mode              text1        4CC
_T2CON                   (abs)        013
_TMR2IF                  (abs)        069
_TRISA                   (abs)        085
_TRISA5                  (abs)        42D
_TRISA6                  (abs)        42E
_TRISB                   (abs)        005
_TRISB0                  (abs)        028
_TRISB1                  (abs)        029
_TRISB2                  (abs)        02A
_TRISB3                  (abs)        02B
_TRISB4                  (abs)        02C
_TRISB5                  (abs)        02D
_TRISB6                  (abs)        02E
_TRISB7                  (abs)        02F
_TRISC                   (abs)        105
_WPUA                    (abs)        088
_WPUB                    (abs)        008
__Habs1                  abs1         000
__Hbank0                 bank0        000
__Hbank1                 bank1        000
__Hbank2                 bank2        000
__Hbank3                 bank3        000
__HbitbssCOMMON          bitbssCOMMON 000
__HbssBANK0              bssBANK0     000
__HbssCOMMON             bssCOMMON    000
__Hcinit                 cinit        024
__Hclrtext               clrtext      000
__Hcode                  code         000
__Hcommon                common       000
__Hconfig                config       000
__HcstackBANK0           cstackBANK0  000
__HcstackCOMMON          cstackCOMMON 000
__HdataBANK0             dataBANK0    000
__Heeprom_data           eeprom_data  000
__Hend_init              end_init     00F
__Hfunctab               functab      000
__HidataBANK0            idataBANK0   000
__Hidloc                 idloc        000
__Hinit                  init         00D
__Hintentry              intentry     00D
__Hmaintext              maintext     000
__HnvBANK0               nvBANK0      000
__Hpa_nodes0             pa_nodes0    000
__Hpowerup               powerup      000
__Hram                   ram          000
__Hreset_vec             reset_vec    002
__Hsfr0                  sfr0         000
__Hsfr1                  sfr1         000
__Hsfr2                  sfr2         000
__Hsfr3                  sfr3         000
__Hspace_0               (abs)        78A
__Hspace_1               (abs)        3C2
__Hspace_2               (abs)        000
__Hspace_3               (abs)        000
__Hstack                 stack        000
__Hstrings               strings      000
__Htext                  text         000
__Labs1                  abs1         000
__Lbank0                 bank0        000
__Lbank1                 bank1        000
__Lbank2                 bank2        000
__Lbank3                 bank3        000
__LbitbssCOMMON          bitbssCOMMON 000
__LbssBANK0              bssBANK0     000
__LbssCOMMON             bssCOMMON    000
__Lcinit                 cinit        00F
__Lclrtext               clrtext      000
__Lcode                  code         000
__Lcommon                common       000
__Lconfig                config       000
__LcstackBANK0           cstackBANK0  000
__LcstackCOMMON          cstackCOMMON 000
__LdataBANK0             dataBANK0    000
__Leeprom_data           eeprom_data  000
__Lend_init              end_init     00D
__Lfunctab               functab      000
__LidataBANK0            idataBANK0   000
__Lidloc                 idloc        000
__Linit                  init         00D
__Lintentry              intentry     004
__Lmaintext              maintext     000
__LnvBANK0               nvBANK0      000
__Lpa_nodes0             pa_nodes0    000
__Lpowerup               powerup      000
__Lram                   ram          000
__Lreset_vec             reset_vec    000
__Lsfr0                  sfr0         000
__Lsfr1                  sfr1         000
__Lsfr2                  sfr2         000
__Lsfr3                  sfr3         000
__Lspace_0               (abs)        000
__Lspace_1               (abs)        000
__Lspace_2               (abs)        000
__Lspace_3               (abs)        000
__Lstack                 stack        000
__Lstrings               strings      000
__Ltext                  text         000
__S0                     (abs)        78A
__S1                     (abs)        07B
__S2                     (abs)        000
___int_sp                stack        000
___latbits               (abs)        001
___lbdiv                 text9        64A
___lbdiv@counter         cstackCOMMON 075
___lbdiv@dividend        cstackCOMMON 074
___lbdiv@divisor         cstackCOMMON 073
___lbdiv@quotient        cstackCOMMON 076
___lbmod                 text9        665
___lbmod@counter         cstackCOMMON 076
___lbmod@dividend        cstackCOMMON 075
___lbmod@divisor         cstackCOMMON 073
___lbmod@rem             cstackCOMMON 077
___lwdiv                 text19       1C0
___lwdiv@counter         cstackBANK0  04E
___lwdiv@dividend        cstackCOMMON 075
___lwdiv@divisor         cstackCOMMON 073
___lwdiv@quotient        cstackBANK0  04F
___lwmod                 text1        48F
___lwmod@counter         cstackCOMMON 077
___lwmod@dividend        cstackCOMMON 075
___lwmod@divisor         cstackCOMMON 073
___sp                    stack        000
___wmul                  text1        4B3
___wmul@multiplicand     cstackCOMMON 075
___wmul@multiplier       cstackCOMMON 073
___wmul@product          cstackBANK0  04E
__end_ofPL10             text1        519
__end_ofPL12             text19       209
__end_ofPL14             text1        520
__end_ofPL16             text9        685
__end_ofPL18             text9        689
__end_ofPL2              text19       1F9
__end_ofPL20             text19       20E
__end_ofPL4              text20       3B2
__end_ofPL6              text19       202
__end_ofPL8              text1        512
__end_of_A1              text20       2F6
__end_of_A2              text20       2FB
__end_of_A3              text20       300
__end_of_A4              text20       305
__end_of_A5              text20       30A
__end_of_A6              text20       30F
__end_of_A7              text20       314
__end_of_ADC_Sample      text19       1C0
__end_of_B1              text20       319
__end_of_B2              text20       31E
__end_of_B3              text20       323
__end_of_B4              text20       328
__end_of_B5              text20       32D
__end_of_B6              text20       332
__end_of_B7              text20       337
__end_of_C1              text20       33C
__end_of_C2              text20       341
__end_of_C3              text20       34A
__end_of_C4              text20       353
__end_of_C5              text20       358
__end_of_C6              text20       35D
__end_of_C7              text20       365
__end_of_D1              text20       36C
__end_of_D2              text20       373
__end_of_D3              text20       378
__end_of_D4              text20       380
__end_of_D5              text20       388
__end_of_D6              text20       390
__end_of_D7              text20       398
__end_of_Init_System     text1        509
__end_of_Isr_Timer       text20       237
__end_of_Sleep_Mode      text1        4F1
__end_of___lbdiv         text9        665
__end_of___lbmod         text9        681
__end_of___lwdiv         text19       1EA
__end_of___lwmod         text1        4B3
__end_of___wmul          text1        4CC
__end_of__initialization cinit        021
__end_of__stringtab      strings      776
__end_of_batCtr          text19       062
__end_of_checkBatValue   text19       0F0
__end_of_checkOutA       text19       081
__end_of_chrgCtr         text14       6C3
__end_of_keyCtr          text12       58C
__end_of_keyRead         text12       5DE
__end_of_led1            text20       39D
__end_of_led2            text20       3A2
__end_of_led3            text20       3A7
__end_of_main            maintext     75C
__end_of_numArray        strings      782
__end_of_pwmInit         text1        48F
__end_of_pwmStop         text1        481
__end_of_refreshLed      text20       2F1
__end_of_showCtr         text9        64A
__end_of_taskSecond      text8        731
__end_of_updateLed       text20       23D
__end_of_workCtr         text1        47C
__initialization         cinit        00F
__pbitbssCOMMON          bitbssCOMMON 3C0
__pbssBANK0              bssBANK0     020
__pbssCOMMON             bssCOMMON    079
__pcstackBANK0           cstackBANK0  04E
__pcstackCOMMON          cstackCOMMON 070
__pdataBANK0             dataBANK0    05B
__pidataBANK0            idataBANK0   000
__pintentry              intentry     004
__pmaintext              maintext     731
__pnvBANK0               nvBANK0      061
__pstrings               strings      770
__pswtext1               swtext1      75C
__pswtext2               swtext2      6C3
__ptext1                 text1        3B2
__ptext10                text9        665
__ptext11                text9        64A
__ptext12                text12       520
__ptext13                text12       58C
__ptext14                text14       689
__ptext15                text19       062
__ptext16                text19       081
__ptext17                text19       1C0
__ptext18                text19       0F0
__ptext19                text19       024
__ptext2                 text1        47C
__ptext20                text20       20E
__ptext21                text20       237
__ptext22                text20       23D
__ptext23                text20       3A2
__ptext24                text20       39D
__ptext25                text20       398
__ptext26                text20       390
__ptext27                text20       388
__ptext28                text20       380
__ptext29                text20       378
__ptext3                 text1        481
__ptext30                text20       373
__ptext31                text20       36C
__ptext32                text20       365
__ptext33                text20       35D
__ptext34                text20       358
__ptext35                text20       353
__ptext36                text20       34A
__ptext37                text20       341
__ptext38                text20       33C
__ptext39                text20       337
__ptext4                 text1        4B3
__ptext40                text20       332
__ptext41                text20       32D
__ptext42                text20       328
__ptext43                text20       323
__ptext44                text20       31E
__ptext45                text20       319
__ptext46                text20       314
__ptext47                text20       30F
__ptext48                text20       30A
__ptext49                text20       305
__ptext5                 text1        48F
__ptext50                text20       300
__ptext51                text20       2FB
__ptext52                text20       2F6
__ptext53                text20       2F1
__ptext6                 text1        4CC
__ptext7                 text1        4F1
__ptext8                 text8        6FB
__ptext9                 text9        5DE
__size_of_A1             (abs)        000
__size_of_A2             (abs)        000
__size_of_A3             (abs)        000
__size_of_A4             (abs)        000
__size_of_A5             (abs)        000
__size_of_A6             (abs)        000
__size_of_A7             (abs)        000
__size_of_ADC_Sample     (abs)        000
__size_of_B1             (abs)        000
__size_of_B2             (abs)        000
__size_of_B3             (abs)        000
__size_of_B4             (abs)        000
__size_of_B5             (abs)        000
__size_of_B6             (abs)        000
__size_of_B7             (abs)        000
__size_of_C1             (abs)        000
__size_of_C2             (abs)        000
__size_of_C3             (abs)        000
__size_of_C4             (abs)        000
__size_of_C5             (abs)        000
__size_of_C6             (abs)        000
__size_of_C7             (abs)        000
__size_of_D1             (abs)        000
__size_of_D2             (abs)        000
__size_of_D3             (abs)        000
__size_of_D4             (abs)        000
__size_of_D5             (abs)        000
__size_of_D6             (abs)        000
__size_of_D7             (abs)        000
__size_of_Init_System    (abs)        000
__size_of_Isr_Timer      (abs)        000
__size_of_Sleep_Mode     (abs)        000
__size_of___lbdiv        (abs)        000
__size_of___lbmod        (abs)        000
__size_of___lwdiv        (abs)        000
__size_of___lwmod        (abs)        000
__size_of___wmul         (abs)        000
__size_of_batCtr         (abs)        000
__size_of_checkBatValue  (abs)        000
__size_of_checkOutA      (abs)        000
__size_of_chrgCtr        (abs)        000
__size_of_keyCtr         (abs)        000
__size_of_keyRead        (abs)        000
__size_of_led1           (abs)        000
__size_of_led2           (abs)        000
__size_of_led3           (abs)        000
__size_of_main           (abs)        000
__size_of_pwmInit        (abs)        000
__size_of_pwmStop        (abs)        000
__size_of_refreshLed     (abs)        000
__size_of_showCtr        (abs)        000
__size_of_taskSecond     (abs)        000
__size_of_updateLed      (abs)        000
__size_of_workCtr        (abs)        000
__stringbase             strings      775
__stringtab              strings      770
_adresult                bssBANK0     024
_batCtr                  text19       024
_batSubCount             bssBANK0     02A
_batSubMaxTime           dataBANK0    05B
_batValue                bssBANK0     034
_checkBatValue           text19       081
_checkOutA               text19       062
_chrgCtr                 text14       689
_chrgFlag                bssBANK0     049
_chrgMaxData             bssBANK0     026
_chrgStep                bssBANK0     041
_chrgTime                bssBANK0     03C
_count10s                bssBANK0     02C
_count1s                 bssBANK0     038
_count2s                 bssBANK0     042
_count30s                bssBANK0     028
_count900s               bssBANK0     040
_firstTime               nvBANK0      061
_keyCount                bssBANK0     04B
_keyCtr                  text12       520
_keyNum                  bssBANK0     048
_keyRead                 text12       58C
_keyTime                 bssBANK0     043
_led1                    text20       398
_led2                    text20       39D
_led3                    text20       3A2
_ledCnt                  bssBANK0     04D
_longPressFlag           bssBANK0     04A
_lowBatFlag              bssBANK0     03F
_lowBatTime              bssBANK0     03B
_main                    maintext     731
_modeStep                bssCOMMON    07A
_numArray                strings      776
_overTime                bssBANK0     03E
_power_ad                bssBANK0     020
_preKeyNum               bssBANK0     047
_pwmDuty                 bssBANK0     046
_pwmInit                 text1        481
_pwmStop                 text1        47C
_refreshLed              text20       23D
_result                  bssBANK0     022
_showBatValue            bssBANK0     045
_showBatValueAddTime     bssBANK0     03D
_showCtr                 text9        5DE
_showFlag                bssBANK0     044
_showNumAShi             dataBANK0    060
_showNumAge              dataBANK0    05F
_showNumBShi             dataBANK0    05E
_showNumBge              dataBANK0    05D
_sleepTime               bssBANK0     02E
_taskSecond              text8        6FB
_test_adc                bssBANK0     03A
_updateLed               text20       237
_wait30s                 bssBANK0     036
_workCtr                 text1        3B2
_workStep                bssCOMMON    079
btemp                    (abs)        07E
clear_ram0               clrtext      782
end_of_initialization    cinit        021
interrupt_function       intentry     004
intlevel0                functab      000
intlevel1                functab      000
intlevel2                functab      000
intlevel3                functab      000
intlevel4                functab      000
intlevel5                functab      000
keyCtr@keyClick          cstackCOMMON 076
keyCtr@keyStatus         cstackCOMMON 075
keyRead@keyStatus        cstackCOMMON 073
reset_vec                reset_vec    000
saved_w                  (abs)        07E
stackhi                  (abs)        000
stacklo                  (abs)        000
start                    init         00D
start_initialization     cinit        00F
wtemp0                   (abs)        07E


FUNCTION INFORMATION:

 *************** function _main *****************
 Defined at:
		line 872 in file "C:\mcuproject\scm\zdt\C103_8F083_tssop20_\C103_8F083_tssop20_\main.c"
 Parameters:    Size  Location     Type
		None
 Auto vars:     Size  Location     Type
		None
 Return value:  Size  Location     Type
                  1    wreg      void 
 Registers used:
		wreg, fsr0l, fsr0h, status,2, status,0, pclath, cstack
 Tracked objects:
		On entry : 
		On exit  : 
		Unchanged: 
 Data sizes:     COMMON   BANK0   BANK1   BANK2
      Params:         0       0       0       0
      Locals:         0       0       0       0
      Temps:          0       0       0       0
      Totals:         0       0       0       0
Total ram usage:        0 bytes
 Hardware stack levels required when called:    7
 This function calls:
		_Init_System
		_batCtr
		_checkBatValue
		_checkOutA
		_chrgCtr
		_keyCtr
		_showCtr
		_taskSecond
		_workCtr
 This function is called by:
		Startup code after reset
 This function uses a non-reentrant model


 *************** function _workCtr *****************
 Defined at:
		line 470 in file "C:\mcuproject\scm\zdt\C103_8F083_tssop20_\C103_8F083_tssop20_\main.c"
 Parameters:    Size  Location     Type
		None
 Auto vars:     Size  Location     Type
		None
 Return value:  Size  Location     Type
                  1    wreg      void 
 Registers used:
		wreg, status,2, status,0, pclath, cstack
 Tracked objects:
		On entry : 
		On exit  : 
		Unchanged: 
 Data sizes:     COMMON   BANK0   BANK1   BANK2
      Params:         0       0       0       0
      Locals:         0       0       0       0
      Temps:          0       2       0       0
      Totals:         0       2       0       0
Total ram usage:        2 bytes
 Hardware stack levels used:    1
 Hardware stack levels required when called:    6
 This function calls:
		_Sleep_Mode
		___lwmod
		___wmul
		_pwmInit
		_pwmStop
 This function is called by:
		_main
 This function uses a non-reentrant model


 *************** function _pwmStop *****************
 Defined at:
		line 306 in file "C:\mcuproject\scm\zdt\C103_8F083_tssop20_\C103_8F083_tssop20_\main.c"
 Parameters:    Size  Location     Type
		None
 Auto vars:     Size  Location     Type
		None
 Return value:  Size  Location     Type
                  1    wreg      void 
 Registers used:
		status,2
 Tracked objects:
		On entry : 
		On exit  : 
		Unchanged: 
 Data sizes:     COMMON   BANK0   BANK1   BANK2
      Params:         0       0       0       0
      Locals:         0       0       0       0
      Temps:          0       0       0       0
      Totals:         0       0       0       0
Total ram usage:        0 bytes
 Hardware stack levels used:    1
 Hardware stack levels required when called:    4
 This function calls:
		Nothing
 This function is called by:
		_workCtr
 This function uses a non-reentrant model


 *************** function _pwmInit *****************
 Defined at:
		line 294 in file "C:\mcuproject\scm\zdt\C103_8F083_tssop20_\C103_8F083_tssop20_\main.c"
 Parameters:    Size  Location     Type
		None
 Auto vars:     Size  Location     Type
		None
 Return value:  Size  Location     Type
                  1    wreg      void 
 Registers used:
		wreg, status,2, status,0
 Tracked objects:
		On entry : 
		On exit  : 
		Unchanged: 
 Data sizes:     COMMON   BANK0   BANK1   BANK2
      Params:         0       0       0       0
      Locals:         0       0       0       0
      Temps:          0       0       0       0
      Totals:         0       0       0       0
Total ram usage:        0 bytes
 Hardware stack levels used:    1
 Hardware stack levels required when called:    4
 This function calls:
		Nothing
 This function is called by:
		_workCtr
 This function uses a non-reentrant model


 *************** function ___wmul *****************
 Defined at:
		line 15 in file "C:\mcuproject\scm\SCMCU_IDE_V2.00.16_Beta5\SCMCU_IDE_V2.00.16_Beta5\data\sources\common\Umul16.c"
 Parameters:    Size  Location     Type
  multiplier      2    3[COMMON] unsigned int 
  multiplicand    2    5[COMMON] unsigned int 
 Auto vars:     Size  Location     Type
  product         2    0[BANK0 ] unsigned int 
 Return value:  Size  Location     Type
                  2    3[COMMON] unsigned int 
 Registers used:
		wreg, status,2, status,0
 Tracked objects:
		On entry : 
		On exit  : 
		Unchanged: 
 Data sizes:     COMMON   BANK0   BANK1   BANK2
      Params:         4       0       0       0
      Locals:         0       2       0       0
      Temps:          0       0       0       0
      Totals:         4       2       0       0
Total ram usage:        6 bytes
 Hardware stack levels used:    1
 Hardware stack levels required when called:    4
 This function calls:
		Nothing
 This function is called by:
		_workCtr
 This function uses a non-reentrant model


 *************** function ___lwmod *****************
 Defined at:
		line 6 in file "C:\mcuproject\scm\SCMCU_IDE_V2.00.16_Beta5\SCMCU_IDE_V2.00.16_Beta5\data\sources\common\lwmod.c"
 Parameters:    Size  Location     Type
  divisor         2    3[COMMON] unsigned int 
  dividend        2    5[COMMON] unsigned int 
 Auto vars:     Size  Location     Type
  counter         1    7[COMMON] unsigned char 
 Return value:  Size  Location     Type
                  2    3[COMMON] unsigned int 
 Registers used:
		wreg, status,2, status,0
 Tracked objects:
		On entry : 
		On exit  : 
		Unchanged: 
 Data sizes:     COMMON   BANK0   BANK1   BANK2
      Params:         4       0       0       0
      Locals:         1       0       0       0
      Temps:          0       0       0       0
      Totals:         5       0       0       0
Total ram usage:        5 bytes
 Hardware stack levels used:    1
 Hardware stack levels required when called:    4
 This function calls:
		Nothing
 This function is called by:
		_workCtr
 This function uses a non-reentrant model


 *************** function _Sleep_Mode *****************
 Defined at:
		line 156 in file "C:\mcuproject\scm\zdt\C103_8F083_tssop20_\C103_8F083_tssop20_\main.c"
 Parameters:    Size  Location     Type
		None
 Auto vars:     Size  Location     Type
		None
 Return value:  Size  Location     Type
                  1    wreg      void 
 Registers used:
		wreg, status,2, status,0, pclath, cstack
 Tracked objects:
		On entry : 
		On exit  : 
		Unchanged: 
 Data sizes:     COMMON   BANK0   BANK1   BANK2
      Params:         0       0       0       0
      Locals:         0       0       0       0
      Temps:          0       0       0       0
      Totals:         0       0       0       0
Total ram usage:        0 bytes
 Hardware stack levels used:    1
 Hardware stack levels required when called:    5
 This function calls:
		_Init_System
 This function is called by:
		_workCtr
 This function uses a non-reentrant model


 *************** function _Init_System *****************
 Defined at:
		line 74 in file "C:\mcuproject\scm\zdt\C103_8F083_tssop20_\C103_8F083_tssop20_\main.c"
 Parameters:    Size  Location     Type
		None
 Auto vars:     Size  Location     Type
		None
 Return value:  Size  Location     Type
                  1    wreg      void 
 Registers used:
		wreg, status,2
 Tracked objects:
		On entry : 
		On exit  : 
		Unchanged: 
 Data sizes:     COMMON   BANK0   BANK1   BANK2
      Params:         0       0       0       0
      Locals:         0       0       0       0
      Temps:          0       0       0       0
      Totals:         0       0       0       0
Total ram usage:        0 bytes
 Hardware stack levels used:    1
 Hardware stack levels required when called:    4
 This function calls:
		Nothing
 This function is called by:
		_Sleep_Mode
		_main
 This function uses a non-reentrant model


 *************** function _taskSecond *****************
 Defined at:
		line 780 in file "C:\mcuproject\scm\zdt\C103_8F083_tssop20_\C103_8F083_tssop20_\main.c"
 Parameters:    Size  Location     Type
		None
 Auto vars:     Size  Location     Type
		None
 Return value:  Size  Location     Type
                  1    wreg      void 
 Registers used:
		wreg, status,2, status,0
 Tracked objects:
		On entry : 
		On exit  : 
		Unchanged: 
 Data sizes:     COMMON   BANK0   BANK1   BANK2
      Params:         0       0       0       0
      Locals:         0       0       0       0
      Temps:          2       0       0       0
      Totals:         2       0       0       0
Total ram usage:        2 bytes
 Hardware stack levels used:    1
 Hardware stack levels required when called:    4
 This function calls:
		Nothing
 This function is called by:
		_main
 This function uses a non-reentrant model


 *************** function _showCtr *****************
 Defined at:
		line 627 in file "C:\mcuproject\scm\zdt\C103_8F083_tssop20_\C103_8F083_tssop20_\main.c"
 Parameters:    Size  Location     Type
		None
 Auto vars:     Size  Location     Type
		None
 Return value:  Size  Location     Type
                  1    wreg      void 
 Registers used:
		wreg, fsr0l, fsr0h, status,2, status,0, pclath, cstack
 Tracked objects:
		On entry : 
		On exit  : 
		Unchanged: 
 Data sizes:     COMMON   BANK0   BANK1   BANK2
      Params:         0       0       0       0
      Locals:         0       0       0       0
      Temps:          0       0       0       0
      Totals:         0       0       0       0
Total ram usage:        0 bytes
 Hardware stack levels used:    1
 Hardware stack levels required when called:    5
 This function calls:
		___lbdiv
		___lbmod
 This function is called by:
		_main
 This function uses a non-reentrant model


 *************** function ___lbmod *****************
 Defined at:
		line 4 in file "C:\mcuproject\scm\SCMCU_IDE_V2.00.16_Beta5\SCMCU_IDE_V2.00.16_Beta5\data\sources\common\lbmod.c"
 Parameters:    Size  Location     Type
  dividend        1    wreg     unsigned char 
  divisor         1    3[COMMON] unsigned char 
 Auto vars:     Size  Location     Type
  dividend        1    5[COMMON] unsigned char 
  rem             1    7[COMMON] unsigned char 
  counter         1    6[COMMON] unsigned char 
 Return value:  Size  Location     Type
                  1    wreg      unsigned char 
 Registers used:
		wreg, status,2, status,0
 Tracked objects:
		On entry : 
		On exit  : 
		Unchanged: 
 Data sizes:     COMMON   BANK0   BANK1   BANK2
      Params:         1       0       0       0
      Locals:         3       0       0       0
      Temps:          1       0       0       0
      Totals:         5       0       0       0
Total ram usage:        5 bytes
 Hardware stack levels used:    1
 Hardware stack levels required when called:    4
 This function calls:
		Nothing
 This function is called by:
		_showCtr
 This function uses a non-reentrant model


 *************** function ___lbdiv *****************
 Defined at:
		line 4 in file "C:\mcuproject\scm\SCMCU_IDE_V2.00.16_Beta5\SCMCU_IDE_V2.00.16_Beta5\data\sources\common\lbdiv.c"
 Parameters:    Size  Location     Type
  dividend        1    wreg     unsigned char 
  divisor         1    3[COMMON] unsigned char 
 Auto vars:     Size  Location     Type
  dividend        1    4[COMMON] unsigned char 
  quotient        1    6[COMMON] unsigned char 
  counter         1    5[COMMON] unsigned char 
 Return value:  Size  Location     Type
                  1    wreg      unsigned char 
 Registers used:
		wreg, status,2, status,0
 Tracked objects:
		On entry : 
		On exit  : 
		Unchanged: 
 Data sizes:     COMMON   BANK0   BANK1   BANK2
      Params:         1       0       0       0
      Locals:         3       0       0       0
      Temps:          0       0       0       0
      Totals:         4       0       0       0
Total ram usage:        4 bytes
 Hardware stack levels used:    1
 Hardware stack levels required when called:    4
 This function calls:
		Nothing
 This function is called by:
		_showCtr
 This function uses a non-reentrant model


 *************** function _keyCtr *****************
 Defined at:
		line 377 in file "C:\mcuproject\scm\zdt\C103_8F083_tssop20_\C103_8F083_tssop20_\main.c"
 Parameters:    Size  Location     Type
		None
 Auto vars:     Size  Location     Type
  keyClick        1    6[COMMON] unsigned char 
  keyStatus       1    5[COMMON] unsigned char 
 Return value:  Size  Location     Type
                  1    wreg      void 
 Registers used:
		wreg, status,2, status,0, pclath, cstack
 Tracked objects:
		On entry : 
		On exit  : 
		Unchanged: 
 Data sizes:     COMMON   BANK0   BANK1   BANK2
      Params:         0       0       0       0
      Locals:         2       0       0       0
      Temps:          1       0       0       0
      Totals:         3       0       0       0
Total ram usage:        3 bytes
 Hardware stack levels used:    1
 Hardware stack levels required when called:    5
 This function calls:
		_keyRead
 This function is called by:
		_main
 This function uses a non-reentrant model


 *************** function _keyRead *****************
 Defined at:
		line 314 in file "C:\mcuproject\scm\zdt\C103_8F083_tssop20_\C103_8F083_tssop20_\main.c"
 Parameters:    Size  Location     Type
  keyStatus       1    wreg     unsigned char 
 Auto vars:     Size  Location     Type
  keyStatus       1    3[COMMON] unsigned char 
 Return value:  Size  Location     Type
                  1    wreg      unsigned char 
 Registers used:
		wreg, status,2, status,0
 Tracked objects:
		On entry : 
		On exit  : 
		Unchanged: 
 Data sizes:     COMMON   BANK0   BANK1   BANK2
      Params:         0       0       0       0
      Locals:         1       0       0       0
      Temps:          0       0       0       0
      Totals:         1       0       0       0
Total ram usage:        1 bytes
 Hardware stack levels used:    1
 Hardware stack levels required when called:    4
 This function calls:
		Nothing
 This function is called by:
		_keyCtr
 This function uses a non-reentrant model


 *************** function _chrgCtr *****************
 Defined at:
		line 574 in file "C:\mcuproject\scm\zdt\C103_8F083_tssop20_\C103_8F083_tssop20_\main.c"
 Parameters:    Size  Location     Type
		None
 Auto vars:     Size  Location     Type
		None
 Return value:  Size  Location     Type
                  1    wreg      void 
 Registers used:
		wreg, status,2, status,0
 Tracked objects:
		On entry : 
		On exit  : 
		Unchanged: 
 Data sizes:     COMMON   BANK0   BANK1   BANK2
      Params:         0       0       0       0
      Locals:         0       0       0       0
      Temps:          0       0       0       0
      Totals:         0       0       0       0
Total ram usage:        0 bytes
 Hardware stack levels used:    1
 Hardware stack levels required when called:    4
 This function calls:
		Nothing
 This function is called by:
		_main
 This function uses a non-reentrant model


 *************** function _checkOutA *****************
 Defined at:
		line 713 in file "C:\mcuproject\scm\zdt\C103_8F083_tssop20_\C103_8F083_tssop20_\main.c"
 Parameters:    Size  Location     Type
		None
 Auto vars:     Size  Location     Type
		None
 Return value:  Size  Location     Type
                  1    wreg      void 
 Registers used:
		wreg, status,2, status,0, pclath, cstack
 Tracked objects:
		On entry : 
		On exit  : 
		Unchanged: 
 Data sizes:     COMMON   BANK0   BANK1   BANK2
      Params:         0       0       0       0
      Locals:         0       0       0       0
      Temps:          0       0       0       0
      Totals:         0       0       0       0
Total ram usage:        0 bytes
 Hardware stack levels used:    1
 Hardware stack levels required when called:    5
 This function calls:
		_ADC_Sample
 This function is called by:
		_main
 This function uses a non-reentrant model


 *************** function _checkBatValue *****************
 Defined at:
		line 736 in file "C:\mcuproject\scm\zdt\C103_8F083_tssop20_\C103_8F083_tssop20_\main.c"
 Parameters:    Size  Location     Type
		None
 Auto vars:     Size  Location     Type
		None
 Return value:  Size  Location     Type
                  1    wreg      void 
 Registers used:
		wreg, status,2, status,0, pclath, cstack
 Tracked objects:
		On entry : 
		On exit  : 
		Unchanged: 
 Data sizes:     COMMON   BANK0   BANK1   BANK2
      Params:         0       0       0       0
      Locals:         0       0       0       0
      Temps:          0       0       0       0
      Totals:         0       0       0       0
Total ram usage:        0 bytes
 Hardware stack levels used:    1
 Hardware stack levels required when called:    5
 This function calls:
		_ADC_Sample
		___lwdiv
 This function is called by:
		_main
 This function uses a non-reentrant model


 *************** function ___lwdiv *****************
 Defined at:
		line 6 in file "C:\mcuproject\scm\SCMCU_IDE_V2.00.16_Beta5\SCMCU_IDE_V2.00.16_Beta5\data\sources\common\lwdiv.c"
 Parameters:    Size  Location     Type
  divisor         2    3[COMMON] unsigned int 
  dividend        2    5[COMMON] unsigned int 
 Auto vars:     Size  Location     Type
  quotient        2    1[BANK0 ] unsigned int 
  counter         1    0[BANK0 ] unsigned char 
 Return value:  Size  Location     Type
                  2    3[COMMON] unsigned int 
 Registers used:
		wreg, status,2, status,0
 Tracked objects:
		On entry : 
		On exit  : 
		Unchanged: 
 Data sizes:     COMMON   BANK0   BANK1   BANK2
      Params:         4       0       0       0
      Locals:         0       3       0       0
      Temps:          0       0       0       0
      Totals:         4       3       0       0
Total ram usage:        7 bytes
 Hardware stack levels used:    1
 Hardware stack levels required when called:    4
 This function calls:
		Nothing
 This function is called by:
		_checkBatValue
 This function uses a non-reentrant model


 *************** function _ADC_Sample *****************
 Defined at:
		line 224 in file "C:\mcuproject\scm\zdt\C103_8F083_tssop20_\C103_8F083_tssop20_\main.c"
 Parameters:    Size  Location     Type
  adch            1    wreg     unsigned char 
  adldo           1    3[COMMON] unsigned char 
 Auto vars:     Size  Location     Type
  adch            1    1[BANK0 ] unsigned char 
  j               1    0[BANK0 ] unsigned char 
  adsum           4    3[BANK0 ] volatile unsigned long 
  ad_temp         2   11[BANK0 ] volatile unsigned int 
  admax           2    9[BANK0 ] volatile unsigned int 
  admin           2    7[BANK0 ] volatile unsigned int 
  i               1    2[BANK0 ] unsigned char 
 Return value:  Size  Location     Type
                  1    wreg      unsigned char 
 Registers used:
		wreg, status,2, status,0
 Tracked objects:
		On entry : 
		On exit  : 
		Unchanged: 
 Data sizes:     COMMON   BANK0   BANK1   BANK2
      Params:         1       0       0       0
      Locals:         0      13       0       0
      Temps:          4       0       0       0
      Totals:         5      13       0       0
Total ram usage:       18 bytes
 Hardware stack levels used:    1
 Hardware stack levels required when called:    4
 This function calls:
		Nothing
 This function is called by:
		_checkOutA
		_checkBatValue
 This function uses a non-reentrant model


 *************** function _batCtr *****************
 Defined at:
		line 826 in file "C:\mcuproject\scm\zdt\C103_8F083_tssop20_\C103_8F083_tssop20_\main.c"
 Parameters:    Size  Location     Type
		None
 Auto vars:     Size  Location     Type
		None
 Return value:  Size  Location     Type
                  1    wreg      void 
 Registers used:
		wreg, status,2, status,0
 Tracked objects:
		On entry : 
		On exit  : 
		Unchanged: 
 Data sizes:     COMMON   BANK0   BANK1   BANK2
      Params:         0       0       0       0
      Locals:         0       0       0       0
      Temps:          2       0       0       0
      Totals:         2       0       0       0
Total ram usage:        2 bytes
 Hardware stack levels used:    1
 Hardware stack levels required when called:    4
 This function calls:
		Nothing
 This function is called by:
		_main
 This function uses a non-reentrant model


 *************** function _Isr_Timer *****************
 Defined at:
		line 125 in file "C:\mcuproject\scm\zdt\C103_8F083_tssop20_\C103_8F083_tssop20_\main.c"
 Parameters:    Size  Location     Type
		None
 Auto vars:     Size  Location     Type
		None
 Return value:  Size  Location     Type
                  1    wreg      void 
 Registers used:
		wreg, fsr0l, fsr0h, status,2, status,0, pclath, cstack
 Tracked objects:
		On entry : 
		On exit  : 
		Unchanged: 
 Data sizes:     COMMON   BANK0   BANK1   BANK2
      Params:         0       0       0       0
      Locals:         0       0       0       0
      Temps:          3       0       0       0
      Totals:         3       0       0       0
Total ram usage:        3 bytes
 Hardware stack levels used:    1
 Hardware stack levels required when called:    3
 This function calls:
		_updateLed
 This function is called by:
		Interrupt level 1
 This function uses a non-reentrant model


 *************** function _updateLed *****************
 Defined at:
		line 453 in file "C:\mcuproject\scm\zdt\C103_8F083_tssop20_\C103_8F083_tssop20_\main.c"
 Parameters:    Size  Location     Type
		None
 Auto vars:     Size  Location     Type
		None
 Return value:  Size  Location     Type
                  1    wreg      void 
 Registers used:
		wreg, fsr0l, fsr0h, status,2, status,0, pclath, cstack
 Tracked objects:
		On entry : 
		On exit  : 
		Unchanged: 
 Data sizes:     COMMON   BANK0   BANK1   BANK2
      Params:         0       0       0       0
      Locals:         0       0       0       0
      Temps:          0       0       0       0
      Totals:         0       0       0       0
Total ram usage:        0 bytes
 Hardware stack levels used:    1
 Hardware stack levels required when called:    2
 This function calls:
		_refreshLed
 This function is called by:
		_Isr_Timer
 This function uses a non-reentrant model


 *************** function _refreshLed *****************
 Defined at:
		line 330 in file "C:\mcuproject\scm\zdt\C103_8F083_tssop20_\C103_8F083_tssop20_\number.c"
 Parameters:    Size  Location     Type
		None
 Auto vars:     Size  Location     Type
		None
 Return value:  Size  Location     Type
                  1    wreg      void 
 Registers used:
		wreg, fsr0l, fsr0h, status,2, status,0, pclath, cstack
 Tracked objects:
		On entry : 
		On exit  : 
		Unchanged: 
 Data sizes:     COMMON   BANK0   BANK1   BANK2
      Params:         0       0       0       0
      Locals:         0       0       0       0
      Temps:          0       0       0       0
      Totals:         0       0       0       0
Total ram usage:        0 bytes
 Hardware stack levels used:    1
 Hardware stack levels required when called:    1
 This function calls:
		_A1
		_A2
		_A3
		_A4
		_A5
		_A6
		_A7
		_B1
		_B2
		_B3
		_B4
		_B5
		_B6
		_B7
		_C1
		_C2
		_C3
		_C4
		_C5
		_C6
		_C7
		_D1
		_D2
		_D3
		_D4
		_D5
		_D6
		_D7
		_led1
		_led2
		_led3
 This function is called by:
		_updateLed
 This function uses a non-reentrant model


 *************** function _led3 *****************
 Defined at:
		line 248 in file "C:\mcuproject\scm\zdt\C103_8F083_tssop20_\C103_8F083_tssop20_\number.c"
 Parameters:    Size  Location     Type
		None
 Auto vars:     Size  Location     Type
		None
 Return value:  Size  Location     Type
                  1    wreg      void 
 Registers used:
		None
 Tracked objects:
		On entry : 
		On exit  : 
		Unchanged: 
 Data sizes:     COMMON   BANK0   BANK1   BANK2
      Params:         0       0       0       0
      Locals:         0       0       0       0
      Temps:          0       0       0       0
      Totals:         0       0       0       0
Total ram usage:        0 bytes
 Hardware stack levels used:    1
 This function calls:
		Nothing
 This function is called by:
		_refreshLed
 This function uses a non-reentrant model


 *************** function _led2 *****************
 Defined at:
		line 240 in file "C:\mcuproject\scm\zdt\C103_8F083_tssop20_\C103_8F083_tssop20_\number.c"
 Parameters:    Size  Location     Type
		None
 Auto vars:     Size  Location     Type
		None
 Return value:  Size  Location     Type
                  1    wreg      void 
 Registers used:
		None
 Tracked objects:
		On entry : 
		On exit  : 
		Unchanged: 
 Data sizes:     COMMON   BANK0   BANK1   BANK2
      Params:         0       0       0       0
      Locals:         0       0       0       0
      Temps:          0       0       0       0
      Totals:         0       0       0       0
Total ram usage:        0 bytes
 Hardware stack levels used:    1
 This function calls:
		Nothing
 This function is called by:
		_refreshLed
 This function uses a non-reentrant model


 *************** function _led1 *****************
 Defined at:
		line 232 in file "C:\mcuproject\scm\zdt\C103_8F083_tssop20_\C103_8F083_tssop20_\number.c"
 Parameters:    Size  Location     Type
		None
 Auto vars:     Size  Location     Type
		None
 Return value:  Size  Location     Type
                  1    wreg      void 
 Registers used:
		None
 Tracked objects:
		On entry : 
		On exit  : 
		Unchanged: 
 Data sizes:     COMMON   BANK0   BANK1   BANK2
      Params:         0       0       0       0
      Locals:         0       0       0       0
      Temps:          0       0       0       0
      Totals:         0       0       0       0
Total ram usage:        0 bytes
 Hardware stack levels used:    1
 This function calls:
		Nothing
 This function is called by:
		_refreshLed
 This function uses a non-reentrant model


 *************** function _D7 *****************
 Defined at:
		line 224 in file "C:\mcuproject\scm\zdt\C103_8F083_tssop20_\C103_8F083_tssop20_\number.c"
 Parameters:    Size  Location     Type
		None
 Auto vars:     Size  Location     Type
		None
 Return value:  Size  Location     Type
                  1    wreg      void 
 Registers used:
		None
 Tracked objects:
		On entry : 
		On exit  : 
		Unchanged: 
 Data sizes:     COMMON   BANK0   BANK1   BANK2
      Params:         0       0       0       0
      Locals:         0       0       0       0
      Temps:          0       0       0       0
      Totals:         0       0       0       0
Total ram usage:        0 bytes
 Hardware stack levels used:    1
 This function calls:
		Nothing
 This function is called by:
		_refreshLed
 This function uses a non-reentrant model


 *************** function _D6 *****************
 Defined at:
		line 216 in file "C:\mcuproject\scm\zdt\C103_8F083_tssop20_\C103_8F083_tssop20_\number.c"
 Parameters:    Size  Location     Type
		None
 Auto vars:     Size  Location     Type
		None
 Return value:  Size  Location     Type
                  1    wreg      void 
 Registers used:
		None
 Tracked objects:
		On entry : 
		On exit  : 
		Unchanged: 
 Data sizes:     COMMON   BANK0   BANK1   BANK2
      Params:         0       0       0       0
      Locals:         0       0       0       0
      Temps:          0       0       0       0
      Totals:         0       0       0       0
Total ram usage:        0 bytes
 Hardware stack levels used:    1
 This function calls:
		Nothing
 This function is called by:
		_refreshLed
 This function uses a non-reentrant model


 *************** function _D5 *****************
 Defined at:
		line 207 in file "C:\mcuproject\scm\zdt\C103_8F083_tssop20_\C103_8F083_tssop20_\number.c"
 Parameters:    Size  Location     Type
		None
 Auto vars:     Size  Location     Type
		None
 Return value:  Size  Location     Type
                  1    wreg      void 
 Registers used:
		None
 Tracked objects:
		On entry : 
		On exit  : 
		Unchanged: 
 Data sizes:     COMMON   BANK0   BANK1   BANK2
      Params:         0       0       0       0
      Locals:         0       0       0       0
      Temps:          0       0       0       0
      Totals:         0       0       0       0
Total ram usage:        0 bytes
 Hardware stack levels used:    1
 This function calls:
		Nothing
 This function is called by:
		_refreshLed
 This function uses a non-reentrant model


 *************** function _D4 *****************
 Defined at:
		line 199 in file "C:\mcuproject\scm\zdt\C103_8F083_tssop20_\C103_8F083_tssop20_\number.c"
 Parameters:    Size  Location     Type
		None
 Auto vars:     Size  Location     Type
		None
 Return value:  Size  Location     Type
                  1    wreg      void 
 Registers used:
		None
 Tracked objects:
		On entry : 
		On exit  : 
		Unchanged: 
 Data sizes:     COMMON   BANK0   BANK1   BANK2
      Params:         0       0       0       0
      Locals:         0       0       0       0
      Temps:          0       0       0       0
      Totals:         0       0       0       0
Total ram usage:        0 bytes
 Hardware stack levels used:    1
 This function calls:
		Nothing
 This function is called by:
		_refreshLed
 This function uses a non-reentrant model


 *************** function _D3 *****************
 Defined at:
		line 191 in file "C:\mcuproject\scm\zdt\C103_8F083_tssop20_\C103_8F083_tssop20_\number.c"
 Parameters:    Size  Location     Type
		None
 Auto vars:     Size  Location     Type
		None
 Return value:  Size  Location     Type
                  1    wreg      void 
 Registers used:
		None
 Tracked objects:
		On entry : 
		On exit  : 
		Unchanged: 
 Data sizes:     COMMON   BANK0   BANK1   BANK2
      Params:         0       0       0       0
      Locals:         0       0       0       0
      Temps:          0       0       0       0
      Totals:         0       0       0       0
Total ram usage:        0 bytes
 Hardware stack levels used:    1
 This function calls:
		Nothing
 This function is called by:
		_refreshLed
 This function uses a non-reentrant model


 *************** function _D2 *****************
 Defined at:
		line 183 in file "C:\mcuproject\scm\zdt\C103_8F083_tssop20_\C103_8F083_tssop20_\number.c"
 Parameters:    Size  Location     Type
		None
 Auto vars:     Size  Location     Type
		None
 Return value:  Size  Location     Type
                  1    wreg      void 
 Registers used:
		None
 Tracked objects:
		On entry : 
		On exit  : 
		Unchanged: 
 Data sizes:     COMMON   BANK0   BANK1   BANK2
      Params:         0       0       0       0
      Locals:         0       0       0       0
      Temps:          0       0       0       0
      Totals:         0       0       0       0
Total ram usage:        0 bytes
 Hardware stack levels used:    1
 This function calls:
		Nothing
 This function is called by:
		_refreshLed
 This function uses a non-reentrant model


 *************** function _D1 *****************
 Defined at:
		line 175 in file "C:\mcuproject\scm\zdt\C103_8F083_tssop20_\C103_8F083_tssop20_\number.c"
 Parameters:    Size  Location     Type
		None
 Auto vars:     Size  Location     Type
		None
 Return value:  Size  Location     Type
                  1    wreg      void 
 Registers used:
		None
 Tracked objects:
		On entry : 
		On exit  : 
		Unchanged: 
 Data sizes:     COMMON   BANK0   BANK1   BANK2
      Params:         0       0       0       0
      Locals:         0       0       0       0
      Temps:          0       0       0       0
      Totals:         0       0       0       0
Total ram usage:        0 bytes
 Hardware stack levels used:    1
 This function calls:
		Nothing
 This function is called by:
		_refreshLed
 This function uses a non-reentrant model


 *************** function _C7 *****************
 Defined at:
		line 167 in file "C:\mcuproject\scm\zdt\C103_8F083_tssop20_\C103_8F083_tssop20_\number.c"
 Parameters:    Size  Location     Type
		None
 Auto vars:     Size  Location     Type
		None
 Return value:  Size  Location     Type
                  1    wreg      void 
 Registers used:
		None
 Tracked objects:
		On entry : 
		On exit  : 
		Unchanged: 
 Data sizes:     COMMON   BANK0   BANK1   BANK2
      Params:         0       0       0       0
      Locals:         0       0       0       0
      Temps:          0       0       0       0
      Totals:         0       0       0       0
Total ram usage:        0 bytes
 Hardware stack levels used:    1
 This function calls:
		Nothing
 This function is called by:
		_refreshLed
 This function uses a non-reentrant model


 *************** function _C6 *****************
 Defined at:
		line 159 in file "C:\mcuproject\scm\zdt\C103_8F083_tssop20_\C103_8F083_tssop20_\number.c"
 Parameters:    Size  Location     Type
		None
 Auto vars:     Size  Location     Type
		None
 Return value:  Size  Location     Type
                  1    wreg      void 
 Registers used:
		None
 Tracked objects:
		On entry : 
		On exit  : 
		Unchanged: 
 Data sizes:     COMMON   BANK0   BANK1   BANK2
      Params:         0       0       0       0
      Locals:         0       0       0       0
      Temps:          0       0       0       0
      Totals:         0       0       0       0
Total ram usage:        0 bytes
 Hardware stack levels used:    1
 This function calls:
		Nothing
 This function is called by:
		_refreshLed
 This function uses a non-reentrant model


 *************** function _C5 *****************
 Defined at:
		line 151 in file "C:\mcuproject\scm\zdt\C103_8F083_tssop20_\C103_8F083_tssop20_\number.c"
 Parameters:    Size  Location     Type
		None
 Auto vars:     Size  Location     Type
		None
 Return value:  Size  Location     Type
                  1    wreg      void 
 Registers used:
		None
 Tracked objects:
		On entry : 
		On exit  : 
		Unchanged: 
 Data sizes:     COMMON   BANK0   BANK1   BANK2
      Params:         0       0       0       0
      Locals:         0       0       0       0
      Temps:          0       0       0       0
      Totals:         0       0       0       0
Total ram usage:        0 bytes
 Hardware stack levels used:    1
 This function calls:
		Nothing
 This function is called by:
		_refreshLed
 This function uses a non-reentrant model


 *************** function _C4 *****************
 Defined at:
		line 143 in file "C:\mcuproject\scm\zdt\C103_8F083_tssop20_\C103_8F083_tssop20_\number.c"
 Parameters:    Size  Location     Type
		None
 Auto vars:     Size  Location     Type
		None
 Return value:  Size  Location     Type
                  1    wreg      void 
 Registers used:
		None
 Tracked objects:
		On entry : 
		On exit  : 
		Unchanged: 
 Data sizes:     COMMON   BANK0   BANK1   BANK2
      Params:         0       0       0       0
      Locals:         0       0       0       0
      Temps:          0       0       0       0
      Totals:         0       0       0       0
Total ram usage:        0 bytes
 Hardware stack levels used:    1
 This function calls:
		Nothing
 This function is called by:
		_refreshLed
 This function uses a non-reentrant model


 *************** function _C3 *****************
 Defined at:
		line 135 in file "C:\mcuproject\scm\zdt\C103_8F083_tssop20_\C103_8F083_tssop20_\number.c"
 Parameters:    Size  Location     Type
		None
 Auto vars:     Size  Location     Type
		None
 Return value:  Size  Location     Type
                  1    wreg      void 
 Registers used:
		None
 Tracked objects:
		On entry : 
		On exit  : 
		Unchanged: 
 Data sizes:     COMMON   BANK0   BANK1   BANK2
      Params:         0       0       0       0
      Locals:         0       0       0       0
      Temps:          0       0       0       0
      Totals:         0       0       0       0
Total ram usage:        0 bytes
 Hardware stack levels used:    1
 This function calls:
		Nothing
 This function is called by:
		_refreshLed
 This function uses a non-reentrant model


 *************** function _C2 *****************
 Defined at:
		line 127 in file "C:\mcuproject\scm\zdt\C103_8F083_tssop20_\C103_8F083_tssop20_\number.c"
 Parameters:    Size  Location     Type
		None
 Auto vars:     Size  Location     Type
		None
 Return value:  Size  Location     Type
                  1    wreg      void 
 Registers used:
		None
 Tracked objects:
		On entry : 
		On exit  : 
		Unchanged: 
 Data sizes:     COMMON   BANK0   BANK1   BANK2
      Params:         0       0       0       0
      Locals:         0       0       0       0
      Temps:          0       0       0       0
      Totals:         0       0       0       0
Total ram usage:        0 bytes
 Hardware stack levels used:    1
 This function calls:
		Nothing
 This function is called by:
		_refreshLed
 This function uses a non-reentrant model


 *************** function _C1 *****************
 Defined at:
		line 119 in file "C:\mcuproject\scm\zdt\C103_8F083_tssop20_\C103_8F083_tssop20_\number.c"
 Parameters:    Size  Location     Type
		None
 Auto vars:     Size  Location     Type
		None
 Return value:  Size  Location     Type
                  1    wreg      void 
 Registers used:
		None
 Tracked objects:
		On entry : 
		On exit  : 
		Unchanged: 
 Data sizes:     COMMON   BANK0   BANK1   BANK2
      Params:         0       0       0       0
      Locals:         0       0       0       0
      Temps:          0       0       0       0
      Totals:         0       0       0       0
Total ram usage:        0 bytes
 Hardware stack levels used:    1
 This function calls:
		Nothing
 This function is called by:
		_refreshLed
 This function uses a non-reentrant model


 *************** function _B7 *****************
 Defined at:
		line 110 in file "C:\mcuproject\scm\zdt\C103_8F083_tssop20_\C103_8F083_tssop20_\number.c"
 Parameters:    Size  Location     Type
		None
 Auto vars:     Size  Location     Type
		None
 Return value:  Size  Location     Type
                  1    wreg      void 
 Registers used:
		None
 Tracked objects:
		On entry : 
		On exit  : 
		Unchanged: 
 Data sizes:     COMMON   BANK0   BANK1   BANK2
      Params:         0       0       0       0
      Locals:         0       0       0       0
      Temps:          0       0       0       0
      Totals:         0       0       0       0
Total ram usage:        0 bytes
 Hardware stack levels used:    1
 This function calls:
		Nothing
 This function is called by:
		_refreshLed
 This function uses a non-reentrant model


 *************** function _B6 *****************
 Defined at:
		line 102 in file "C:\mcuproject\scm\zdt\C103_8F083_tssop20_\C103_8F083_tssop20_\number.c"
 Parameters:    Size  Location     Type
		None
 Auto vars:     Size  Location     Type
		None
 Return value:  Size  Location     Type
                  1    wreg      void 
 Registers used:
		None
 Tracked objects:
		On entry : 
		On exit  : 
		Unchanged: 
 Data sizes:     COMMON   BANK0   BANK1   BANK2
      Params:         0       0       0       0
      Locals:         0       0       0       0
      Temps:          0       0       0       0
      Totals:         0       0       0       0
Total ram usage:        0 bytes
 Hardware stack levels used:    1
 This function calls:
		Nothing
 This function is called by:
		_refreshLed
 This function uses a non-reentrant model


 *************** function _B5 *****************
 Defined at:
		line 93 in file "C:\mcuproject\scm\zdt\C103_8F083_tssop20_\C103_8F083_tssop20_\number.c"
 Parameters:    Size  Location     Type
		None
 Auto vars:     Size  Location     Type
		None
 Return value:  Size  Location     Type
                  1    wreg      void 
 Registers used:
		None
 Tracked objects:
		On entry : 
		On exit  : 
		Unchanged: 
 Data sizes:     COMMON   BANK0   BANK1   BANK2
      Params:         0       0       0       0
      Locals:         0       0       0       0
      Temps:          0       0       0       0
      Totals:         0       0       0       0
Total ram usage:        0 bytes
 Hardware stack levels used:    1
 This function calls:
		Nothing
 This function is called by:
		_refreshLed
 This function uses a non-reentrant model


 *************** function _B4 *****************
 Defined at:
		line 85 in file "C:\mcuproject\scm\zdt\C103_8F083_tssop20_\C103_8F083_tssop20_\number.c"
 Parameters:    Size  Location     Type
		None
 Auto vars:     Size  Location     Type
		None
 Return value:  Size  Location     Type
                  1    wreg      void 
 Registers used:
		None
 Tracked objects:
		On entry : 
		On exit  : 
		Unchanged: 
 Data sizes:     COMMON   BANK0   BANK1   BANK2
      Params:         0       0       0       0
      Locals:         0       0       0       0
      Temps:          0       0       0       0
      Totals:         0       0       0       0
Total ram usage:        0 bytes
 Hardware stack levels used:    1
 This function calls:
		Nothing
 This function is called by:
		_refreshLed
 This function uses a non-reentrant model


 *************** function _B3 *****************
 Defined at:
		line 77 in file "C:\mcuproject\scm\zdt\C103_8F083_tssop20_\C103_8F083_tssop20_\number.c"
 Parameters:    Size  Location     Type
		None
 Auto vars:     Size  Location     Type
		None
 Return value:  Size  Location     Type
                  1    wreg      void 
 Registers used:
		None
 Tracked objects:
		On entry : 
		On exit  : 
		Unchanged: 
 Data sizes:     COMMON   BANK0   BANK1   BANK2
      Params:         0       0       0       0
      Locals:         0       0       0       0
      Temps:          0       0       0       0
      Totals:         0       0       0       0
Total ram usage:        0 bytes
 Hardware stack levels used:    1
 This function calls:
		Nothing
 This function is called by:
		_refreshLed
 This function uses a non-reentrant model


 *************** function _B2 *****************
 Defined at:
		line 69 in file "C:\mcuproject\scm\zdt\C103_8F083_tssop20_\C103_8F083_tssop20_\number.c"
 Parameters:    Size  Location     Type
		None
 Auto vars:     Size  Location     Type
		None
 Return value:  Size  Location     Type
                  1    wreg      void 
 Registers used:
		None
 Tracked objects:
		On entry : 
		On exit  : 
		Unchanged: 
 Data sizes:     COMMON   BANK0   BANK1   BANK2
      Params:         0       0       0       0
      Locals:         0       0       0       0
      Temps:          0       0       0       0
      Totals:         0       0       0       0
Total ram usage:        0 bytes
 Hardware stack levels used:    1
 This function calls:
		Nothing
 This function is called by:
		_refreshLed
 This function uses a non-reentrant model


 *************** function _B1 *****************
 Defined at:
		line 61 in file "C:\mcuproject\scm\zdt\C103_8F083_tssop20_\C103_8F083_tssop20_\number.c"
 Parameters:    Size  Location     Type
		None
 Auto vars:     Size  Location     Type
		None
 Return value:  Size  Location     Type
                  1    wreg      void 
 Registers used:
		None
 Tracked objects:
		On entry : 
		On exit  : 
		Unchanged: 
 Data sizes:     COMMON   BANK0   BANK1   BANK2
      Params:         0       0       0       0
      Locals:         0       0       0       0
      Temps:          0       0       0       0
      Totals:         0       0       0       0
Total ram usage:        0 bytes
 Hardware stack levels used:    1
 This function calls:
		Nothing
 This function is called by:
		_refreshLed
 This function uses a non-reentrant model


 *************** function _A7 *****************
 Defined at:
		line 53 in file "C:\mcuproject\scm\zdt\C103_8F083_tssop20_\C103_8F083_tssop20_\number.c"
 Parameters:    Size  Location     Type
		None
 Auto vars:     Size  Location     Type
		None
 Return value:  Size  Location     Type
                  1    wreg      void 
 Registers used:
		None
 Tracked objects:
		On entry : 
		On exit  : 
		Unchanged: 
 Data sizes:     COMMON   BANK0   BANK1   BANK2
      Params:         0       0       0       0
      Locals:         0       0       0       0
      Temps:          0       0       0       0
      Totals:         0       0       0       0
Total ram usage:        0 bytes
 Hardware stack levels used:    1
 This function calls:
		Nothing
 This function is called by:
		_refreshLed
 This function uses a non-reentrant model


 *************** function _A6 *****************
 Defined at:
		line 45 in file "C:\mcuproject\scm\zdt\C103_8F083_tssop20_\C103_8F083_tssop20_\number.c"
 Parameters:    Size  Location     Type
		None
 Auto vars:     Size  Location     Type
		None
 Return value:  Size  Location     Type
                  1    wreg      void 
 Registers used:
		None
 Tracked objects:
		On entry : 
		On exit  : 
		Unchanged: 
 Data sizes:     COMMON   BANK0   BANK1   BANK2
      Params:         0       0       0       0
      Locals:         0       0       0       0
      Temps:          0       0       0       0
      Totals:         0       0       0       0
Total ram usage:        0 bytes
 Hardware stack levels used:    1
 This function calls:
		Nothing
 This function is called by:
		_refreshLed
 This function uses a non-reentrant model


 *************** function _A5 *****************
 Defined at:
		line 37 in file "C:\mcuproject\scm\zdt\C103_8F083_tssop20_\C103_8F083_tssop20_\number.c"
 Parameters:    Size  Location     Type
		None
 Auto vars:     Size  Location     Type
		None
 Return value:  Size  Location     Type
                  1    wreg      void 
 Registers used:
		None
 Tracked objects:
		On entry : 
		On exit  : 
		Unchanged: 
 Data sizes:     COMMON   BANK0   BANK1   BANK2
      Params:         0       0       0       0
      Locals:         0       0       0       0
      Temps:          0       0       0       0
      Totals:         0       0       0       0
Total ram usage:        0 bytes
 Hardware stack levels used:    1
 This function calls:
		Nothing
 This function is called by:
		_refreshLed
 This function uses a non-reentrant model


 *************** function _A4 *****************
 Defined at:
		line 29 in file "C:\mcuproject\scm\zdt\C103_8F083_tssop20_\C103_8F083_tssop20_\number.c"
 Parameters:    Size  Location     Type
		None
 Auto vars:     Size  Location     Type
		None
 Return value:  Size  Location     Type
                  1    wreg      void 
 Registers used:
		None
 Tracked objects:
		On entry : 
		On exit  : 
		Unchanged: 
 Data sizes:     COMMON   BANK0   BANK1   BANK2
      Params:         0       0       0       0
      Locals:         0       0       0       0
      Temps:          0       0       0       0
      Totals:         0       0       0       0
Total ram usage:        0 bytes
 Hardware stack levels used:    1
 This function calls:
		Nothing
 This function is called by:
		_refreshLed
 This function uses a non-reentrant model


 *************** function _A3 *****************
 Defined at:
		line 21 in file "C:\mcuproject\scm\zdt\C103_8F083_tssop20_\C103_8F083_tssop20_\number.c"
 Parameters:    Size  Location     Type
		None
 Auto vars:     Size  Location     Type
		None
 Return value:  Size  Location     Type
                  1    wreg      void 
 Registers used:
		None
 Tracked objects:
		On entry : 
		On exit  : 
		Unchanged: 
 Data sizes:     COMMON   BANK0   BANK1   BANK2
      Params:         0       0       0       0
      Locals:         0       0       0       0
      Temps:          0       0       0       0
      Totals:         0       0       0       0
Total ram usage:        0 bytes
 Hardware stack levels used:    1
 This function calls:
		Nothing
 This function is called by:
		_refreshLed
 This function uses a non-reentrant model


 *************** function _A2 *****************
 Defined at:
		line 13 in file "C:\mcuproject\scm\zdt\C103_8F083_tssop20_\C103_8F083_tssop20_\number.c"
 Parameters:    Size  Location     Type
		None
 Auto vars:     Size  Location     Type
		None
 Return value:  Size  Location     Type
                  1    wreg      void 
 Registers used:
		None
 Tracked objects:
		On entry : 
		On exit  : 
		Unchanged: 
 Data sizes:     COMMON   BANK0   BANK1   BANK2
      Params:         0       0       0       0
      Locals:         0       0       0       0
      Temps:          0       0       0       0
      Totals:         0       0       0       0
Total ram usage:        0 bytes
 Hardware stack levels used:    1
 This function calls:
		Nothing
 This function is called by:
		_refreshLed
 This function uses a non-reentrant model


 *************** function _A1 *****************
 Defined at:
		line 5 in file "C:\mcuproject\scm\zdt\C103_8F083_tssop20_\C103_8F083_tssop20_\number.c"
 Parameters:    Size  Location     Type
		None
 Auto vars:     Size  Location     Type
		None
 Return value:  Size  Location     Type
                  1    wreg      void 
 Registers used:
		None
 Tracked objects:
		On entry : 
		On exit  : 
		Unchanged: 
 Data sizes:     COMMON   BANK0   BANK1   BANK2
      Params:         0       0       0       0
      Locals:         0       0       0       0
      Temps:          0       0       0       0
      Totals:         0       0       0       0
Total ram usage:        0 bytes
 Hardware stack levels used:    1
 This function calls:
		Nothing
 This function is called by:
		_refreshLed
 This function uses a non-reentrant model



MODULE INFORMATION

Module		Function		Class		Link	Load	Size
C:\mcuproject\scm\SCMCU_IDE_V2.00.16_Beta5\SCMCU_IDE_V2.00.16_Beta5\data\sources\common\lwdiv.c
		___lwdiv       		CODE           	01C0	0000	43

C:\mcuproject\scm\SCMCU_IDE_V2.00.16_Beta5\SCMCU_IDE_V2.00.16_Beta5\data\sources\common\lwdiv.c estimated size: 43

C:\mcuproject\scm\SCMCU_IDE_V2.00.16_Beta5\SCMCU_IDE_V2.00.16_Beta5\data\sources\common\lbmod.c
		___lbmod       		CODE           	0665	0000	29

C:\mcuproject\scm\SCMCU_IDE_V2.00.16_Beta5\SCMCU_IDE_V2.00.16_Beta5\data\sources\common\lbmod.c estimated size: 29

C:\mcuproject\scm\SCMCU_IDE_V2.00.16_Beta5\SCMCU_IDE_V2.00.16_Beta5\data\sources\common\Umul16.c
		___wmul        		CODE           	04B3	0000	26

C:\mcuproject\scm\SCMCU_IDE_V2.00.16_Beta5\SCMCU_IDE_V2.00.16_Beta5\data\sources\common\Umul16.c estimated size: 26

C:\mcuproject\scm\SCMCU_IDE_V2.00.16_Beta5\SCMCU_IDE_V2.00.16_Beta5\data\sources\common\lbdiv.c
		___lbdiv       		CODE           	064A	0000	28

C:\mcuproject\scm\SCMCU_IDE_V2.00.16_Beta5\SCMCU_IDE_V2.00.16_Beta5\data\sources\common\lbdiv.c estimated size: 28

shared
		PL12           		CODE           	0202	0000	8
		PL8            		CODE           	0509	0000	10
		PL14           		CODE           	0519	0000	8
		__stringtab    		STRING         	0770	0000	7
		PL16           		CODE           	0681	0000	5
		PL18           		CODE           	0685	0000	5
		__initialization		CODE           	000F	0000	19
		_numArray      		STRING         	0776	0000	13
		PL2            		CODE           	01EA	0000	16
		PL10           		CODE           	0512	0000	8
		PL4            		CODE           	03A7	0000	12
		PL20           		CODE           	0209	0000	6
		PL6            		CODE           	01F9	0000	10

shared estimated size: 127

C:\mcuproject\scm\SCMCU_IDE_V2.00.16_Beta5\SCMCU_IDE_V2.00.16_Beta5\data\sources\common\lwmod.c
		___lwmod       		CODE           	048F	0000	37

C:\mcuproject\scm\SCMCU_IDE_V2.00.16_Beta5\SCMCU_IDE_V2.00.16_Beta5\data\sources\common\lwmod.c estimated size: 37

C:\mcuproject\scm\zdt\C103_8F083_tssop20_\C103_8F083_tssop20_\main.c
		_batCtr        		CODE           	0024	0000	63
		_keyRead       		CODE           	058C	0000	83
		_checkBatValue 		CODE           	0081	0000	112
		_Sleep_Mode    		CODE           	04CC	0000	38
		_main          		CODE           	0731	0000	44
		_checkOutA     		CODE           	0062	0000	32
		_updateLed     		CODE           	0237	0000	7
		_showCtr       		CODE           	05DE	0000	109
		_keyCtr        		CODE           	0520	0000	109
		_pwmInit       		CODE           	0481	0000	15
		_taskSecond    		CODE           	06FB	0000	55
		_workCtr       		CODE           	03B2	0000	203
		_pwmStop       		CODE           	047C	0000	6
		_Init_System   		CODE           	04F1	0000	25
		_ADC_Sample    		CODE           	00F0	0000	209
		_Isr_Timer     		CODE           	020E	0000	42
		_chrgCtr       		CODE           	0689	0000	59

C:\mcuproject\scm\zdt\C103_8F083_tssop20_\C103_8F083_tssop20_\main.c estimated size: 1211

C:\mcuproject\scm\zdt\C103_8F083_tssop20_\C103_8F083_tssop20_\number.c
		_led3          		CODE           	03A2	0000	6
		_refreshLed    		CODE           	023D	0000	181
		_A1            		CODE           	02F1	0000	6
		_B1            		CODE           	0314	0000	6
		_A2            		CODE           	02F6	0000	6
		_C1            		CODE           	0337	0000	6
		_B2            		CODE           	0319	0000	6
		_D1            		CODE           	0365	0000	8
		_A3            		CODE           	02FB	0000	6
		_C2            		CODE           	033C	0000	6
		_B3            		CODE           	031E	0000	6
		_D2            		CODE           	036C	0000	8
		_A4            		CODE           	0300	0000	6
		_C3            		CODE           	0341	0000	10
		_B4            		CODE           	0323	0000	6
		_D3            		CODE           	0373	0000	6
		_A5            		CODE           	0305	0000	6
		_C4            		CODE           	034A	0000	10
		_led1          		CODE           	0398	0000	6
		_B5            		CODE           	0328	0000	6
		_D4            		CODE           	0378	0000	9
		_A6            		CODE           	030A	0000	6
		_C5            		CODE           	0353	0000	6
		_B6            		CODE           	032D	0000	6
		_D5            		CODE           	0380	0000	9
		_A7            		CODE           	030F	0000	6
		_C6            		CODE           	0358	0000	6
		_B7            		CODE           	0332	0000	6
		_D6            		CODE           	0388	0000	9
		_C7            		CODE           	035D	0000	9
		_D7            		CODE           	0390	0000	9
		_led2          		CODE           	039D	0000	6

C:\mcuproject\scm\zdt\C103_8F083_tssop20_\C103_8F083_tssop20_\number.c estimated size: 394

