

Microchip Technology PIC PRO Macro Assembler V1.45 build -152302408 
                                                                                               Mon Jan 12 16:51:08 2026

Microchip Technology Omniscient Code Generator v1.45 (PRO mode) build 201711160504
     1                           	processor	SC8F083
     2                           	opt	pw 120
     3                           	opt	pm
     4                           	psect	idataCOMMON,global,class=CODE,delta=2
     5                           	psect	idataBANK0,global,class=CODE,delta=2
     6                           	psect	strings,global,class=STRING,delta=2
     7                           	psect	nvBANK0,global,class=BANK0,space=1,delta=1
     8                           	psect	cinit,global,class=CODE,merge=1,delta=2
     9                           	psect	bitbssCOMMON,global,bit,class=COMMON,space=1,delta=1
    10                           	psect	bssCOMMON,global,class=COMMON,space=1,delta=1
    11                           	psect	dataCOMMON,global,class=COMMON,space=1,delta=1
    12                           	psect	bssBANK0,global,class=BANK0,space=1,delta=1
    13                           	psect	dataBANK0,global,class=BANK0,space=1,delta=1
    14                           	psect	clrtext,global,class=CODE,delta=2
    15                           	psect	cstackCOMMON,global,class=COMMON,space=1,delta=1
    16                           	psect	cstackBANK0,global,class=BANK0,space=1,delta=1
    17                           	psect	maintext,global,class=CODE,split=1,delta=2
    18                           	psect	text1,local,class=CODE,merge=1,delta=2
    19                           	psect	text3,local,class=CODE,merge=1,delta=2
    20                           	psect	swtext1,local,class=CONST,delta=2
    21                           	psect	text10,local,class=CODE,merge=1,delta=2
    22                           	psect	text17,local,class=CODE,merge=1,delta=2
    23                           	psect	text22,local,class=CODE,merge=1,delta=2
    24                           	psect	text24,local,class=CODE,merge=1,delta=2
    25                           	psect	intentry,global,class=CODE,delta=2
    26                           	psect	pa_nodes0,global,class=CODE,delta=2
    27                           	dabs	1,0x7E,2
    28  0000                     
    29                           ; Version 1.45
    30                           ; Generated 16/11/2017 GMT
    31                           ; 
    32                           ; Copyright © 2017, Microchip Technology Inc. and its subsidiaries ("Microchip")
    33                           ; All rights reserved.
    34                           ; 
    35                           ; This software is developed by Microchip Technology Inc. and its subsidiaries ("Microch
      +                          ip").
    36                           ; 
    37                           ; Redistribution and use in source and binary forms, with or without modification, are
    38                           ; permitted provided that the following conditions are met:
    39                           ; 
    40                           ;     1. Redistributions of source code must retain the above copyright notice, this lis
      +                          t of
    41                           ;        conditions and the following disclaimer.
    42                           ; 
    43                           ;     2. Redistributions in binary form must reproduce the above copyright notice, this 
      +                          list
    44                           ;        of conditions and the following disclaimer in the documentation and/or other
    45                           ;        materials provided with the distribution.
    46                           ; 
    47                           ;     3. Microchip's name may not be used to endorse or promote products derived from th
      +                          is
    48                           ;        software without specific prior written permission.
    49                           ; 
    50                           ; THIS SOFTWARE IS PROVIDED BY MICROCHIP "AS IS" AND ANY EXPRESS OR IMPLIED WARRANTIES,
    51                           ; INCLUDING, BUT NOT LIMITED TO, THE IMPLIED WARRANTIES OF MERCHANTABILITY AND FITNESS F
      +                          OR
    52                           ; PURPOSE ARE DISCLAIMED.  IN NO EVENT SHALL MICROCHIP BE LIABLE FOR ANY DIRECT, INDIREC
      +                          T,
    53                           ; INCIDENTAL, SPECIAL, EXEMPLARY, OR CONSEQUENTIAL DAMAGES (INCLUDING BUT NOT LIMITED TO
    54                           ; PROCUREMENT OF SUBSTITUTE GOODS OR SERVICES; LOSS OF USE, DATA OR PROFITS; OR BUSINESS
    55                           ; INTERRUPTION) HOWSOEVER CAUSED AND ON ANY THEORY OF LIABILITY, WHETHER IN CONTRACT, ST
      +                          RICT
    56                           ; LIABILITY, OR TORT (INCLUDING NEGLIGENCE OR OTHERWISE) ARISING IN ANY WAY OUT OF THE U
      +                          SE OF
    57                           ; THIS SOFTWARE, EVEN IF ADVISED OF THE POSSIBILITY OF SUCH DAMAGE.
    58                           ; 
    59                           ; 
    60                           ; Code-generator required, PIC16F887 Definitions
    61                           ; 
    62                           ; SFR Addresses
    63  0000                     
    64                           	psect	idataCOMMON
    65  0000                     __pidataCOMMON:	
    66                           
    67                           	psect	idataBANK0
    68  0000                     __pidataBANK0:	
    69                           
    70                           	psect	strings
    71  0722                     __pstrings:	
    72  0722                     stringtab:	
    73  0722                     __stringtab:	
    74  0722                     stringcode:	
    75                           ;	String table - string pointers are 1 byte each
    76                           
    77  0722                     stringdir:	
    78  0722  3007               	movlw	high stringdir
    79  0723  008A               	movwf	10
    80  0724  0804               	movf	4,w
    81  0725  0A84               	incf	4,f
    82  0726  0782               	addwf	2,f
    83  0727                     __stringbase:	
    84  0727  3400               	retlw	0
    85  0728                     __end_of__stringtab:	
    86  0728                     _stopTime:	
    87  0728  345A               	retlw	90
    88  0729  3450               	retlw	80
    89  072A  344B               	retlw	75
    90  072B  3446               	retlw	70
    91  072C  3441               	retlw	65
    92  072D  343C               	retlw	60
    93  072E  3431               	retlw	49
    94  072F  3427               	retlw	39
    95  0730  3420               	retlw	32
    96  0731  341B               	retlw	27
    97  0732  3419               	retlw	25
    98  0733  3416               	retlw	22
    99  0734  3413               	retlw	19
   100  0735  3412               	retlw	18
   101  0736  3410               	retlw	16
   102  0737  340E               	retlw	14
   103  0738  340C               	retlw	12
   104  0739                     __end_of_stopTime:	
   105  0739                     _startTime:	
   106  0739  34D2               	retlw	210
   107  073A  34BE               	retlw	190
   108  073B  34B4               	retlw	180
   109  073C  34A0               	retlw	160
   110  073D  348C               	retlw	140
   111  073E  3478               	retlw	120
   112  073F  3464               	retlw	100
   113  0740  3456               	retlw	86
   114  0741  3447               	retlw	71
   115  0742  343C               	retlw	60
   116  0743  3435               	retlw	53
   117  0744  342F               	retlw	47
   118  0745  342B               	retlw	43
   119  0746  3427               	retlw	39
   120  0747  3423               	retlw	35
   121  0748  341F               	retlw	31
   122  0749  341F               	retlw	31
   123  074A                     __end_of_startTime:	
   124  074A                     _numArray:	
   125  074A  343F               	retlw	63
   126  074B  3406               	retlw	6
   127  074C  345B               	retlw	91
   128  074D  344F               	retlw	79
   129  074E  3466               	retlw	102
   130  074F  346D               	retlw	109
   131  0750  347D               	retlw	125
   132  0751  3407               	retlw	7
   133  0752  347F               	retlw	127
   134  0753  346F               	retlw	111
   135  0754  3471               	retlw	113
   136  0755  3479               	retlw	121
   137  0756  3450               	retlw	80
   138  0757                     __end_of_numArray:	
   139                           
   140                           	psect	nvBANK0
   141  006A                     __pnvBANK0:	
   142  006A                     _beepTime:	
   143  006A                     	ds	1
   144  006B                     _firstShowCount:	
   145  006B                     	ds	1
   146  001E                     _PWMD01H	set	30
   147  001D                     _PWMCON2	set	29
   148  001C                     _PWMT4L	set	28
   149  001B                     _PWMD4L	set	27
   150  0019                     _PWMD0L	set	25
   151  0018                     _PWMTH	set	24
   152  0017                     _PWMTL	set	23
   153  0016                     _PWMCON1	set	22
   154  0015                     _PWMCON0	set	21
   155  0014                     _OSCCON	set	20
   156  0013                     _T2CON	set	19
   157  0011                     _PR2	set	17
   158  000E                     _PIE1	set	14
   159  000D                     _PIR1	set	13
   160  000B                     _INTCON	set	11
   161  0009                     _IOCB	set	9
   162  0008                     _WPUB	set	8
   163  0006                     _PORTB	set	6
   164  0005                     _TRISB	set	5
   165  0001                     _OPTION_REG	set	1
   166  0073                     _RAIE	set	115
   167  0069                     _TMR2IF	set	105
   168  006B                     _RAIF	set	107
   169  0058                     _RBIF	set	88
   170  005B                     _RBIE	set	91
   171  005E                     _PEIE	set	94
   172  005F                     _GIE	set	95
   173  0030                     _RB0	set	48
   174  0031                     _RB1	set	49
   175  0032                     _RB2	set	50
   176  0033                     _RB3	set	51
   177  0034                     _RB4	set	52
   178  0099                     _ADRESH	set	153
   179  0098                     _ADRESL	set	152
   180  0096                     _ADCON1	set	150
   181  0095                     _ADCON0	set	149
   182  0089                     _IOCA	set	137
   183  0088                     _WPUA	set	136
   184  0086                     _PORTA	set	134
   185  0085                     _TRISA	set	133
   186  04B2                     _LDO_EN	set	1202
   187  04B6                     _CHS4	set	1206
   188  04A8                     _ADON	set	1192
   189  04A9                     _GODONE	set	1193
   190  0433                     _RA3	set	1075
   191  0437                     _RA7	set	1079
   192  0106                     _PORTC	set	262
   193  0105                     _TRISC	set	261
   194                           
   195                           	psect	cinit
   196  000D                     start_initialization:	
   197                           ; #config settings
   198                           
   199  000D                     __initialization:	
   200                           
   201                           ;initializer for _showNumAge
   202  000D  307F               	movlw	127
   203  000E  00EC               	movwf	__pdataBANK0& (0+127)
   204                           
   205                           ;initializer for _showNumAShi
   206  000F  00FB               	movwf	__pdataCOMMON& (0+127)
   207  0010  3020               	movlw	low __pbssBANK0
   208                           
   209                           ; Clear objects allocated to BANK0
   210  0011  1383               	bcf	3,7	;select IRP bank0
   211  0012  0084               	movwf	4
   212  0013  305D               	movlw	low (__pbssBANK0+61)
   213  0014  118A  279E         	fcall	clear_ram0
   214                           
   215                           ; Clear objects allocated to COMMON
   216  0016  01FA               	clrf	__pbssCOMMON& (0+127)
   217                           
   218                           ; Clear objects allocated to BITCOMMON
   219  0017  01F9               	clrf	(__pbitbssCOMMON/(0+8))& (0+127)
   220  0018                     end_of_initialization:	
   221                           ;End of C runtime variable initialization code
   222                           
   223  0018                     __end_of__initialization:	
   224  0018  0183               	clrf	3
   225  0019  118A  2ED6         	ljmp	_main	;jump to C main() function
   226                           
   227                           	psect	bitbssCOMMON
   228  03C8                     __pbitbssCOMMON:	
   229  03C8                     _B_OnOff:	
   230  03C8                     	ds	1
   231  03C9                     _B_MainLoop:	
   232  03C9                     	ds	1
   233                           
   234                           	psect	bssCOMMON
   235  007A                     __pbssCOMMON:	
   236  007A                     _workStep:	
   237  007A                     	ds	1
   238                           
   239                           	psect	dataCOMMON
   240  007B                     __pdataCOMMON:	
   241  007B                     _showNumAShi:	
   242  007B                     	ds	1
   243                           
   244                           	psect	bssBANK0
   245  0020                     __pbssBANK0:	
   246  0020                     _power_ad:	
   247  0020                     	ds	2
   248  0022                     _result:	
   249  0022                     	ds	2
   250  0024                     _adresult:	
   251  0024                     	ds	2
   252  0026                     _count20s:	
   253  0026                     	ds	2
   254  0028                     _workTime:	
   255  0028                     	ds	2
   256  002A                     _sumBatValue:	
   257  002A                     	ds	2
   258  002C                     _chrgAD:	
   259  002C                     	ds	2
   260  002E                     _fullCount:	
   261  002E                     	ds	2
   262  0030                     _tempData:	
   263  0030                     	ds	2
   264  0032                     _closeCount:	
   265  0032                     	ds	2
   266  0034                     _count900s:	
   267  0034                     	ds	2
   268  0036                     _count5s:	
   269  0036                     	ds	2
   270  0038                     _sleepTime:	
   271  0038                     	ds	2
   272  003A                     _ledCnt:	
   273  003A                     	ds	1
   274  003B                     _test_adc:	
   275  003B                     	ds	1
   276  003C                     _chrgCloseTime:	
   277  003C                     	ds	1
   278  003D                     _lowBatFlag:	
   279  003D                     	ds	1
   280  003E                     _showBatTime:	
   281  003E                     	ds	1
   282  003F                     _chrgPWMFlag:	
   283  003F                     	ds	1
   284  0040                     _motorPWMFlag:	
   285  0040                     	ds	1
   286  0041                     _showWorkTime:	
   287  0041                     	ds	1
   288  0042                     _shanshuoTime:	
   289  0042                     	ds	1
   290  0043                     _showWorkFlag:	
   291  0043                     	ds	1
   292  0044                     _modelStep:	
   293  0044                     	ds	1
   294  0045                     _firstCheckTime:	
   295  0045                     	ds	1
   296  0046                     _protectFlag:	
   297  0046                     	ds	1
   298  0047                     _chrgMaxAD:	
   299  0047                     	ds	1
   300  0048                     _lockCount:	
   301  0048                     	ds	1
   302  0049                     _chrgBatCount:	
   303  0049                     	ds	1
   304  004A                     _chrgMode:	
   305  004A                     	ds	1
   306  004B                     _intCount10:	
   307  004B                     	ds	1
   308  004C                     _countHalfFull:	
   309  004C                     	ds	1
   310  004D                     _chrgWaitTime:	
   311  004D                     	ds	1
   312  004E                     _addTime:	
   313  004E                     	ds	1
   314  004F                     _subTime:	
   315  004F                     	ds	1
   316  0050                     _chrgFullFlag:	
   317  0050                     	ds	1
   318  0051                     _maxduty:	
   319  0051                     	ds	1
   320  0052                     _preBatValue:	
   321  0052                     	ds	1
   322  0053                     _workDuty:	
   323  0053                     	ds	1
   324  0054                     _batValue:	
   325  0054                     	ds	1
   326  0055                     _keyCount4:	
   327  0055                     	ds	1
   328  0056                     _keyCount3:	
   329  0056                     	ds	1
   330  0057                     _keyCount2:	
   331  0057                     	ds	1
   332  0058                     _keyCount:	
   333  0058                     	ds	1
   334  0059                     _longPressFlag:	
   335  0059                     	ds	1
   336  005A                     _count1s:	
   337  005A                     	ds	1
   338  005B                     _chrgFlag:	
   339  005B                     	ds	1
   340  005C                     _MainTime:	
   341  005C                     	ds	1
   342                           
   343                           	psect	dataBANK0
   344  006C                     __pdataBANK0:	
   345  006C                     _showNumAge:	
   346  006C                     	ds	1
   347                           
   348                           	psect	clrtext
   349  079E                     clear_ram0:	
   350                           ;	Called with FSR containing the base address, and
   351                           ;	W with the last address+1
   352                           
   353  079E  0064               	clrwdt	;clear the watchdog before getting into this loop
   354  079F                     clrloop0:	
   355  079F  0180               	clrf	0	;clear RAM location pointed to by FSR
   356  07A0  0A84               	incf	4,f	;increment pointer
   357  07A1  0604               	xorwf	4,w	;XOR with final address
   358  07A2  1903               	btfsc	3,2	;have we reached the end yet?
   359  07A3  3400               	retlw	0	;all done for this memory range, return
   360  07A4  0604               	xorwf	4,w	;XOR again to restore value
   361  07A5  2F9F               	goto	clrloop0	;do the next byte
   362                           
   363                           	psect	cstackCOMMON
   364  0070                     __pcstackCOMMON:	
   365  0070                     ?_pwm2Stop:	
   366  0070                     ?_pwm1Stop:	
   367                           ; 1 bytes @ 0x0
   368                           
   369  0070                     ?_refreshLed:	
   370                           ; 1 bytes @ 0x0
   371                           
   372  0070                     ?_DelayUs:	
   373                           ; 1 bytes @ 0x0
   374                           
   375  0070                     ?_Init_System:	
   376                           ; 1 bytes @ 0x0
   377                           
   378  0070                     ?_Isr_Timer:	
   379                           ; 1 bytes @ 0x0
   380                           
   381  0070                     ??_Isr_Timer:	
   382                           ; 1 bytes @ 0x0
   383                           
   384  0070                     ?_Sleep_Mode:	
   385                           ; 1 bytes @ 0x0
   386                           
   387  0070                     ?_checkOutA:	
   388                           ; 1 bytes @ 0x0
   389                           
   390  0070                     ?_checkBatAD:	
   391                           ; 1 bytes @ 0x0
   392                           
   393  0070                     ?_pwm1Init:	
   394                           ; 1 bytes @ 0x0
   395                           
   396  0070                     ?_pwm2Init:	
   397                           ; 1 bytes @ 0x0
   398                           
   399  0070                     ?_chrgCtr:	
   400                           ; 1 bytes @ 0x0
   401                           
   402  0070                     ?_workCtr:	
   403                           ; 1 bytes @ 0x0
   404                           
   405  0070                     ?_keyRead:	
   406                           ; 1 bytes @ 0x0
   407                           
   408  0070                     ?_keyRead2:	
   409                           ; 1 bytes @ 0x0
   410                           
   411  0070                     ?_keyRead3:	
   412                           ; 1 bytes @ 0x0
   413                           
   414  0070                     ?_keyRead4:	
   415                           ; 1 bytes @ 0x0
   416                           
   417  0070                     ?_keyCtr:	
   418                           ; 1 bytes @ 0x0
   419                           
   420  0070                     ?_ledCtr:	
   421                           ; 1 bytes @ 0x0
   422                           
   423  0070                     ?_main:	
   424                           ; 1 bytes @ 0x0
   425                           
   426                           
   427                           ; 1 bytes @ 0x0
   428  0070                     	ds	2
   429  0072                     ??_pwm2Stop:	
   430  0072                     ??_pwm1Stop:	
   431                           ; 1 bytes @ 0x2
   432                           
   433  0072                     ??_DelayUs:	
   434                           ; 1 bytes @ 0x2
   435                           
   436  0072                     ??_Init_System:	
   437                           ; 1 bytes @ 0x2
   438                           
   439  0072                     ??_Sleep_Mode:	
   440                           ; 1 bytes @ 0x2
   441                           
   442  0072                     ?_ADC_Sample:	
   443                           ; 1 bytes @ 0x2
   444                           
   445  0072                     ??_pwm1Init:	
   446                           ; 1 bytes @ 0x2
   447                           
   448  0072                     ??_pwm2Init:	
   449                           ; 1 bytes @ 0x2
   450                           
   451  0072                     ??_chrgCtr:	
   452                           ; 1 bytes @ 0x2
   453                           
   454  0072                     ??_keyRead:	
   455                           ; 1 bytes @ 0x2
   456                           
   457  0072                     ??_keyRead2:	
   458                           ; 1 bytes @ 0x2
   459                           
   460  0072                     ??_keyRead3:	
   461                           ; 1 bytes @ 0x2
   462                           
   463  0072                     ??_keyRead4:	
   464                           ; 1 bytes @ 0x2
   465                           
   466  0072                     ?_ledOpen:	
   467                           ; 1 bytes @ 0x2
   468                           
   469  0072                     ?___lbdiv:	
   470                           ; 1 bytes @ 0x2
   471                           
   472  0072                     ?___lbmod:	
   473                           ; 1 bytes @ 0x2
   474                           
   475  0072                     ?___lwdiv:	
   476                           ; 1 bytes @ 0x2
   477                           
   478  0072                     ADC_Sample@adldo:	
   479                           ; 2 bytes @ 0x2
   480                           
   481  0072                     keyRead@keyStatus:	
   482                           ; 1 bytes @ 0x2
   483                           
   484  0072                     keyRead2@keyStatus:	
   485                           ; 1 bytes @ 0x2
   486                           
   487  0072                     keyRead3@keyStatus:	
   488                           ; 1 bytes @ 0x2
   489                           
   490  0072                     keyRead4@keyStatus:	
   491                           ; 1 bytes @ 0x2
   492                           
   493  0072                     ledOpen@low:	
   494                           ; 1 bytes @ 0x2
   495                           
   496  0072                     DelayUs@Time:	
   497                           ; 1 bytes @ 0x2
   498                           
   499  0072                     ___lbdiv@divisor:	
   500                           ; 1 bytes @ 0x2
   501                           
   502  0072                     ___lbmod@divisor:	
   503                           ; 1 bytes @ 0x2
   504                           
   505  0072                     ___lwdiv@divisor:	
   506                           ; 1 bytes @ 0x2
   507                           
   508                           
   509                           ; 2 bytes @ 0x2
   510  0072                     	ds	1
   511  0073                     ??_ADC_Sample:	
   512  0073                     ??_keyCtr:	
   513                           ; 1 bytes @ 0x3
   514                           
   515  0073                     ??_ledOpen:	
   516                           ; 1 bytes @ 0x3
   517                           
   518  0073                     ??___lbdiv:	
   519                           ; 1 bytes @ 0x3
   520                           
   521  0073                     ??___lbmod:	
   522                           ; 1 bytes @ 0x3
   523                           
   524  0073                     keyCtr@kclick:	
   525                           ; 1 bytes @ 0x3
   526                           
   527  0073                     ledOpen@hight:	
   528                           ; 1 bytes @ 0x3
   529                           
   530  0073                     DelayUs@a:	
   531                           ; 1 bytes @ 0x3
   532                           
   533  0073                     ___lbdiv@dividend:	
   534                           ; 1 bytes @ 0x3
   535                           
   536                           
   537                           ; 1 bytes @ 0x3
   538  0073                     	ds	1
   539  0074                     ??_refreshLed:	
   540  0074                     ___lbdiv@counter:	
   541                           ; 1 bytes @ 0x4
   542                           
   543  0074                     ___lbmod@dividend:	
   544                           ; 1 bytes @ 0x4
   545                           
   546  0074                     ___lwdiv@dividend:	
   547                           ; 1 bytes @ 0x4
   548                           
   549                           
   550                           ; 2 bytes @ 0x4
   551  0074                     	ds	1
   552  0075                     ___lbdiv@quotient:	
   553  0075                     ___lbmod@counter:	
   554                           ; 1 bytes @ 0x5
   555                           
   556  0075                     chrgCtr@waitMaxTime:	
   557                           ; 1 bytes @ 0x5
   558                           
   559                           
   560                           ; 2 bytes @ 0x5
   561  0075                     	ds	1
   562  0076                     ??___lwdiv:	
   563  0076                     ___lbmod@rem:	
   564                           ; 1 bytes @ 0x6
   565                           
   566  0076                     ___lwdiv@counter:	
   567                           ; 1 bytes @ 0x6
   568                           
   569                           
   570                           ; 1 bytes @ 0x6
   571  0076                     	ds	1
   572  0077                     ??_checkOutA:	
   573  0077                     ??_checkBatAD:	
   574                           ; 1 bytes @ 0x7
   575                           
   576  0077                     ___lwdiv@quotient:	
   577                           ; 1 bytes @ 0x7
   578                           
   579                           
   580                           ; 2 bytes @ 0x7
   581  0077                     	ds	2
   582  0079                     ??_main:	
   583                           
   584                           	psect	cstackBANK0
   585  005D                     __pcstackBANK0:	
   586                           ; 1 bytes @ 0x9
   587                           
   588  005D                     ??_workCtr:	
   589  005D                     ??_ledCtr:	
   590                           ; 1 bytes @ 0x0
   591                           
   592  005D                     ADC_Sample@j:	
   593                           ; 1 bytes @ 0x0
   594                           
   595                           
   596                           ; 1 bytes @ 0x0
   597  005D                     	ds	1
   598  005E                     ADC_Sample@adch:	
   599  005E                     ledCtr@tempMinute:	
   600                           ; 1 bytes @ 0x1
   601                           
   602                           
   603                           ; 1 bytes @ 0x1
   604  005E                     	ds	1
   605  005F                     ADC_Sample@i:	
   606  005F                     workCtr@tempStopTime:	
   607                           ; 1 bytes @ 0x2
   608                           
   609                           
   610                           ; 2 bytes @ 0x2
   611  005F                     	ds	1
   612  0060                     ADC_Sample@adsum:	
   613                           
   614                           ; 4 bytes @ 0x3
   615  0060                     	ds	1
   616  0061                     workCtr@tempStartTime:	
   617                           
   618                           ; 2 bytes @ 0x4
   619  0061                     	ds	3
   620  0064                     ADC_Sample@admin:	
   621                           
   622                           ; 2 bytes @ 0x7
   623  0064                     	ds	2
   624  0066                     ADC_Sample@admax:	
   625                           
   626                           ; 2 bytes @ 0x9
   627  0066                     	ds	2
   628  0068                     ADC_Sample@ad_temp:	
   629                           
   630                           ; 2 bytes @ 0xB
   631  0068                     	ds	2
   632                           
   633                           	psect	maintext
   634  06D6                     __pmaintext:	
   635 ;;
   636 ;;Main: autosize = 0, tempsize = 0, incstack = 0, save=0
   637 ;;
   638 ;; *************** function _main *****************
   639 ;; Defined at:
   640 ;;		line 1003 in file "C:\mcuproject\scm\zdt\D257_8F083_tssop20_\D257_8F083_tssop20_\main.c"
   641 ;; Parameters:    Size  Location     Type
   642 ;;		None
   643 ;; Auto vars:     Size  Location     Type
   644 ;;		None
   645 ;; Return value:  Size  Location     Type
   646 ;;                  1    wreg      void 
   647 ;; Registers used:
   648 ;;		wreg, fsr0l, fsr0h, status,2, status,0, pclath, cstack
   649 ;; Tracked objects:
   650 ;;		On entry : B00/0
   651 ;;		On exit  : 300/0
   652 ;;		Unchanged: 0/0
   653 ;; Data sizes:     COMMON   BANK0   BANK1   BANK2
   654 ;;      Params:         0       0       0       0
   655 ;;      Locals:         0       0       0       0
   656 ;;      Temps:          0       0       0       0
   657 ;;      Totals:         0       0       0       0
   658 ;;Total ram usage:        0 bytes
   659 ;; Hardware stack levels required when called:    3
   660 ;; This function calls:
   661 ;;		_Init_System
   662 ;;		_Sleep_Mode
   663 ;;		_checkBatAD
   664 ;;		_checkOutA
   665 ;;		_chrgCtr
   666 ;;		_keyCtr
   667 ;;		_ledCtr
   668 ;;		_refreshLed
   669 ;;		_workCtr
   670 ;; This function is called by:
   671 ;;		Startup code after reset
   672 ;; This function uses a non-reentrant model
   673 ;;
   674                           
   675                           
   676                           ;psect for function _main
   677  06D6                     _main:	
   678                           
   679                           ;main.c: 1006: Init_System();
   680                           
   681                           ;incstack = 0
   682                           ; Regs used in _main: [wreg-fsr0h+status,2+status,0+pclath+cstack]
   683  06D6  118A  26AE  118A   	fcall	_Init_System
   684                           
   685                           ;main.c: 1007: beepTime = 30;
   686  06D9  301E               	movlw	30
   687  06DA  1283               	bcf	3,5	;RP0=0, select bank0
   688  06DB  00EA               	movwf	_beepTime
   689                           
   690                           ;main.c: 1008: firstShowCount = 200;
   691  06DC  30C8               	movlw	200
   692  06DD  00EB               	movwf	_firstShowCount
   693  06DE                     l4629:	
   694                           
   695                           ;main.c: 1010: {
   696                           ;main.c: 1011: refreshLed();
   697  06DE  118A  24C1  118A   	fcall	_refreshLed
   698                           
   699                           ;main.c: 1012: if(B_MainLoop)
   700  06E1  1CF9               	btfss	_B_MainLoop/(0+8),_B_MainLoop& (0+7)	;volatile
   701  06E2  2EDE               	goto	l4629
   702                           
   703                           ;main.c: 1013: {
   704                           ;main.c: 1014: B_MainLoop = 0;
   705  06E3  10F9               	bcf	_B_MainLoop/(0+8),_B_MainLoop& (0+7)	;volatile
   706  06E4  0064               	clrwdt	;# 
   707                           
   708                           ;main.c: 1016: checkOutA();
   709  06E5  118A  201B  118A   	fcall	_checkOutA
   710                           
   711                           ;main.c: 1017: ledCtr();
   712  06E8  118A  23B7  118A   	fcall	_ledCtr
   713                           
   714                           ;main.c: 1018: if(chrgFlag == 0 && lowBatFlag == 0)
   715  06EB  085B               	movf	_chrgFlag,w
   716  06EC  1D03               	btfss	3,2
   717  06ED  2EF4               	goto	l4645
   718  06EE  083D               	movf	_lowBatFlag,w
   719  06EF  1D03               	btfss	3,2
   720  06F0  2EF4               	goto	l4645
   721                           
   722                           ;main.c: 1019: keyCtr();
   723  06F1  118A  25A7  118A   	fcall	_keyCtr
   724  06F4                     l4645:	
   725                           
   726                           ;main.c: 1020: workCtr();
   727  06F4  118A  230B  118A   	fcall	_workCtr
   728                           
   729                           ;main.c: 1021: chrgCtr();
   730  06F7  118A  21BB  118A   	fcall	_chrgCtr
   731                           
   732                           ;main.c: 1022: checkBatAD();
   733  06FA  118A  2039  118A   	fcall	_checkBatAD
   734                           
   735                           ;main.c: 1023: if(workStep == 0 && keyCount == 0 && chrgFlag == 0 && firstShowCount == 0
      +                           && showWorkTime == 0 && showBatTime == 0)
   736  06FD  087A               	movf	_workStep,w
   737  06FE  1D03               	btfss	3,2
   738  06FF  2F1F               	goto	l4669
   739  0700  0858               	movf	_keyCount,w
   740  0701  1D03               	btfss	3,2
   741  0702  2F1F               	goto	l4669
   742  0703  085B               	movf	_chrgFlag,w
   743  0704  1D03               	btfss	3,2
   744  0705  2F1F               	goto	l4669
   745  0706  086B               	movf	_firstShowCount,w
   746  0707  1D03               	btfss	3,2
   747  0708  2F1F               	goto	l4669
   748  0709  0841               	movf	_showWorkTime,w
   749  070A  1D03               	btfss	3,2
   750  070B  2F1F               	goto	l4669
   751  070C  083E               	movf	_showBatTime,w
   752  070D  1D03               	btfss	3,2
   753  070E  2F1F               	goto	l4669
   754                           
   755                           ;main.c: 1024: {
   756                           ;main.c: 1026: if(++sleepTime > 250)
   757  070F  0AB8               	incf	_sleepTime,f
   758  0710  1903               	skipnz
   759  0711  0AB9               	incf	_sleepTime+1,f
   760  0712  3000               	movlw	0
   761  0713  0239               	subwf	_sleepTime+1,w
   762  0714  30FB               	movlw	251
   763  0715  1903               	skipnz
   764  0716  0238               	subwf	_sleepTime,w
   765  0717  1C03               	skipc
   766  0718  2EDE               	goto	l4629
   767                           
   768                           ;main.c: 1027: {
   769                           ;main.c: 1028: sleepTime = 0;
   770  0719  01B8               	clrf	_sleepTime
   771  071A  01B9               	clrf	_sleepTime+1
   772                           
   773                           ;main.c: 1029: Sleep_Mode();
   774  071B  118A  2689  118A   	fcall	_Sleep_Mode
   775  071E  2EDE               	goto	l4629
   776  071F                     l4669:	
   777                           
   778                           ;main.c: 1032: else
   779                           ;main.c: 1033: {
   780                           ;main.c: 1034: sleepTime = 0;
   781  071F  01B8               	clrf	_sleepTime
   782  0720  01B9               	clrf	_sleepTime+1
   783  0721  2EDE               	goto	l4629
   784  0722                     __end_of_main:	
   785                           
   786                           	psect	text1
   787  030B                     __ptext1:	
   788 ;; *************** function _workCtr *****************
   789 ;; Defined at:
   790 ;;		line 658 in file "C:\mcuproject\scm\zdt\D257_8F083_tssop20_\D257_8F083_tssop20_\main.c"
   791 ;; Parameters:    Size  Location     Type
   792 ;;		None
   793 ;; Auto vars:     Size  Location     Type
   794 ;;  tempStartTim    2    4[BANK0 ] unsigned int 
   795 ;;  tempStopTime    2    2[BANK0 ] unsigned int 
   796 ;; Return value:  Size  Location     Type
   797 ;;                  1    wreg      void 
   798 ;; Registers used:
   799 ;;		wreg, fsr0l, fsr0h, status,2, status,0, pclath, cstack
   800 ;; Tracked objects:
   801 ;;		On entry : 300/0
   802 ;;		On exit  : 300/0
   803 ;;		Unchanged: 0/0
   804 ;; Data sizes:     COMMON   BANK0   BANK1   BANK2
   805 ;;      Params:         0       0       0       0
   806 ;;      Locals:         0       4       0       0
   807 ;;      Temps:          0       2       0       0
   808 ;;      Totals:         0       6       0       0
   809 ;;Total ram usage:        6 bytes
   810 ;; Hardware stack levels used:    1
   811 ;; Hardware stack levels required when called:    2
   812 ;; This function calls:
   813 ;;		___lwdiv
   814 ;;		_pwm1Init
   815 ;;		_pwm1Stop
   816 ;; This function is called by:
   817 ;;		_main
   818 ;; This function uses a non-reentrant model
   819 ;;
   820                           
   821                           
   822                           ;psect for function _workCtr
   823  030B                     _workCtr:	
   824                           
   825                           ;main.c: 660: if(++count5s >= 8000)
   826                           
   827                           ;incstack = 0
   828                           ; Regs used in _workCtr: [wreg-fsr0h+status,2+status,0+pclath+cstack]
   829  030B  0AB6               	incf	_count5s,f
   830  030C  1903               	skipnz
   831  030D  0AB7               	incf	_count5s+1,f
   832  030E  301F               	movlw	31
   833  030F  0237               	subwf	_count5s+1,w
   834  0310  3040               	movlw	64
   835  0311  1903               	skipnz
   836  0312  0236               	subwf	_count5s,w
   837  0313  1C03               	skipc
   838  0314  2B2E               	goto	l4507
   839                           
   840                           ;main.c: 661: {
   841                           ;main.c: 662: count5s = 0;
   842  0315  01B6               	clrf	_count5s
   843  0316  01B7               	clrf	_count5s+1
   844                           
   845                           ;main.c: 663: if(chrgFlag && preBatValue < 99 && batValue >= preBatValue)
   846  0317  085B               	movf	_chrgFlag,w
   847  0318  1903               	btfsc	3,2
   848  0319  2B23               	goto	l4499
   849  031A  3063               	movlw	99
   850  031B  0252               	subwf	_preBatValue,w
   851  031C  1803               	skipnc
   852  031D  2B23               	goto	l4499
   853  031E  0852               	movf	_preBatValue,w
   854  031F  0254               	subwf	_batValue,w
   855  0320  1C03               	skipc
   856  0321  2B23               	goto	l4499
   857                           
   858                           ;main.c: 664: {
   859                           ;main.c: 665: preBatValue = preBatValue+1;
   860  0322  0AD2               	incf	_preBatValue,f
   861  0323                     l4499:	
   862                           
   863                           ;main.c: 666: }
   864                           ;main.c: 667: if(chrgFlag && chrgFullFlag && preBatValue < 99)
   865  0323  085B               	movf	_chrgFlag,w
   866  0324  1903               	btfsc	3,2
   867  0325  2B2E               	goto	l4507
   868  0326  0850               	movf	_chrgFullFlag,w
   869  0327  1903               	btfsc	3,2
   870  0328  2B2E               	goto	l4507
   871  0329  3063               	movlw	99
   872  032A  0252               	subwf	_preBatValue,w
   873  032B  1803               	skipnc
   874  032C  2B2E               	goto	l4507
   875                           
   876                           ;main.c: 668: {
   877                           ;main.c: 669: preBatValue = preBatValue+1;
   878  032D  0AD2               	incf	_preBatValue,f
   879  032E                     l4507:	
   880                           
   881                           ;main.c: 670: }
   882                           ;main.c: 671: }
   883                           ;main.c: 672: if(beepTime > 0)
   884  032E  086A               	movf	_beepTime,w
   885  032F  1903               	btfsc	3,2
   886  0330  2B33               	goto	l1105
   887                           
   888                           ;main.c: 673: {
   889                           ;main.c: 674: beepTime--;
   890  0331  03EA               	decf	_beepTime,f
   891                           
   892                           ;main.c: 675: }
   893  0332  2B35               	goto	l4511
   894  0333                     l1105:	
   895                           
   896                           ;main.c: 676: else
   897                           ;main.c: 677: {
   898                           ;main.c: 678: PORTA &= 0x7F;
   899  0333  1683               	bsf	3,5	;RP0=1, select bank1
   900  0334  1386               	bcf	6,7	;volatile
   901  0335                     l4511:	
   902                           
   903                           ;main.c: 679: }
   904                           ;main.c: 680: if(firstShowCount > 0 && firstShowCount < 150)
   905  0335  1283               	bcf	3,5	;RP0=0, select bank0
   906  0336  086B               	movf	_firstShowCount,w
   907  0337  1903               	btfsc	3,2
   908  0338  2B43               	goto	l4519
   909  0339  3096               	movlw	150
   910  033A  026B               	subwf	_firstShowCount,w
   911  033B  1803               	skipnc
   912  033C  2B43               	goto	l4519
   913                           
   914                           ;main.c: 681: {
   915                           ;main.c: 682: sumBatValue += batValue;
   916  033D  0854               	movf	_batValue,w
   917  033E  07AA               	addwf	_sumBatValue,f
   918  033F  1803               	skipnc
   919  0340  0AAB               	incf	_sumBatValue+1,f
   920                           
   921                           ;main.c: 683: firstCheckTime++;
   922  0341  0AC5               	incf	_firstCheckTime,f
   923                           
   924                           ;main.c: 684: }
   925  0342  2B55               	goto	l4527
   926  0343                     l4519:	
   927                           
   928                           ;main.c: 685: else
   929                           ;main.c: 686: {
   930                           ;main.c: 687: if(sumBatValue > 0)
   931  0343  082A               	movf	_sumBatValue,w
   932  0344  042B               	iorwf	_sumBatValue+1,w
   933  0345  1903               	btfsc	3,2
   934  0346  2B52               	goto	l4523
   935                           
   936                           ;main.c: 688: {
   937                           ;main.c: 689: preBatValue = sumBatValue/firstCheckTime;
   938  0347  0845               	movf	_firstCheckTime,w
   939  0348  00F2               	movwf	___lwdiv@divisor
   940  0349  01F3               	clrf	___lwdiv@divisor+1
   941  034A  082B               	movf	_sumBatValue+1,w
   942  034B  00F5               	movwf	___lwdiv@dividend+1
   943  034C  082A               	movf	_sumBatValue,w
   944  034D  00F4               	movwf	___lwdiv@dividend
   945  034E  2486  118A         	fcall	___lwdiv
   946  0350  0872               	movf	?___lwdiv,w
   947  0351  00D2               	movwf	_preBatValue
   948  0352                     l4523:	
   949                           
   950                           ;main.c: 690: }
   951                           ;main.c: 691: firstCheckTime = 0;
   952  0352  01C5               	clrf	_firstCheckTime
   953                           
   954                           ;main.c: 692: sumBatValue = 0;
   955  0353  01AA               	clrf	_sumBatValue
   956  0354  01AB               	clrf	_sumBatValue+1
   957  0355                     l4527:	
   958                           
   959                           ;main.c: 693: }
   960                           ;main.c: 694: if(firstShowCount > 0)
   961  0355  086B               	movf	_firstShowCount,w
   962  0356  1D03               	btfss	3,2
   963                           
   964                           ;main.c: 695: {
   965                           ;main.c: 696: firstShowCount--;
   966  0357  03EB               	decf	_firstShowCount,f
   967                           
   968                           ;main.c: 697: }
   969                           ;main.c: 699: if(count1s == 0)
   970  0358  085A               	movf	_count1s,w
   971  0359  1D03               	btfss	3,2
   972  035A  2B64               	goto	l4539
   973                           
   974                           ;main.c: 700: {
   975                           ;main.c: 701: if(workStep)
   976  035B  087A               	movf	_workStep,w
   977  035C  1903               	btfsc	3,2
   978  035D  2B62               	goto	l4537
   979                           
   980                           ;main.c: 702: {
   981                           ;main.c: 703: ++count900s;
   982  035E  0AB4               	incf	_count900s,f
   983  035F  1903               	skipnz
   984  0360  0AB5               	incf	_count900s+1,f
   985                           
   986                           ;main.c: 704: }
   987  0361  2B64               	goto	l4539
   988  0362                     l4537:	
   989                           
   990                           ;main.c: 705: else
   991                           ;main.c: 706: {
   992                           ;main.c: 707: count900s = 0;
   993  0362  01B4               	clrf	_count900s
   994  0363  01B5               	clrf	_count900s+1
   995  0364                     l4539:	
   996                           
   997                           ;main.c: 708: }
   998                           ;main.c: 709: }
   999                           ;main.c: 710: if(workStep > 0)
  1000  0364  087A               	movf	_workStep,w
  1001  0365  1903               	btfsc	3,2
  1002  0366  2B6D               	goto	l4545
  1003                           
  1004                           ;main.c: 711: {
  1005                           ;main.c: 712: workDuty = 64 + (workStep*2);
  1006  0367  1003               	clrc
  1007  0368  0D7A               	rlf	_workStep,w
  1008  0369  3E40               	addlw	64
  1009  036A  00D3               	movwf	_workDuty
  1010                           
  1011                           ;main.c: 714: PWMD0L = workDuty;
  1012  036B  0099               	movwf	25	;volatile
  1013                           
  1014                           ;main.c: 715: }
  1015  036C  2B70               	goto	l4549
  1016  036D                     l4545:	
  1017                           
  1018                           ;main.c: 716: else
  1019                           ;main.c: 717: {
  1020                           ;main.c: 718: pwm1Stop();
  1021  036D  23B0  118A         	fcall	_pwm1Stop
  1022                           
  1023                           ;main.c: 719: modelStep = 0;
  1024  036F  01C4               	clrf	_modelStep
  1025  0370                     l4549:	
  1026                           
  1027                           ;main.c: 720: }
  1028                           ;main.c: 721: if(modelStep == 1)
  1029  0370  0B44               	decfsz	_modelStep,w
  1030  0371  2B75               	goto	l4553
  1031  0372                     l4551:	
  1032                           
  1033                           ;main.c: 722: {
  1034                           ;main.c: 723: pwm1Init();
  1035  0372  24B0  118A         	fcall	_pwm1Init
  1036                           
  1037                           ;main.c: 724: }
  1038  0374  2BA7               	goto	l4567
  1039  0375                     l4553:	
  1040                           
  1041                           ;main.c: 725: else if(modelStep > 1)
  1042  0375  3002               	movlw	2
  1043  0376  0244               	subwf	_modelStep,w
  1044  0377  1C03               	skipc
  1045  0378  2BA7               	goto	l4567
  1046                           
  1047                           ;main.c: 726: {
  1048                           ;main.c: 727: unsigned int tempStartTime = startTime[modelStep - 2];
  1049  0379  0844               	movf	_modelStep,w
  1050  037A  3E10               	addlw	low (((_startTime-__stringbase)| (0+32768)+254))
  1051  037B  0084               	movwf	4
  1052  037C  118A  2722  118A   	fcall	stringdir
  1053  037F  00E1               	movwf	workCtr@tempStartTime
  1054  0380  01E2               	clrf	workCtr@tempStartTime+1
  1055                           
  1056                           ;main.c: 728: unsigned int tempStopTime = stopTime[modelStep - 2];
  1057  0381  0844               	movf	_modelStep,w
  1058  0382  3EFF               	addlw	low (((_stopTime-__stringbase)| (0+32768)+254))
  1059  0383  0084               	movwf	4
  1060  0384  118A  2722  118A   	fcall	stringdir
  1061  0387  00DF               	movwf	workCtr@tempStopTime
  1062  0388  01E0               	clrf	workCtr@tempStopTime+1
  1063                           
  1064                           ;main.c: 729: if(++workTime > (tempStartTime + tempStopTime))
  1065  0389  0AA8               	incf	_workTime,f
  1066  038A  1903               	skipnz
  1067  038B  0AA9               	incf	_workTime+1,f
  1068  038C  0761               	addwf	workCtr@tempStartTime,w
  1069  038D  00DD               	movwf	??_workCtr
  1070  038E  0860               	movf	workCtr@tempStopTime+1,w
  1071  038F  1803               	skipnc
  1072  0390  0A60               	incf	workCtr@tempStopTime+1,w
  1073  0391  0762               	addwf	workCtr@tempStartTime+1,w
  1074  0392  00DE               	movwf	??_workCtr+1
  1075  0393  0829               	movf	_workTime+1,w
  1076  0394  025E               	subwf	??_workCtr+1,w
  1077  0395  1D03               	skipz
  1078  0396  2B99               	goto	u3475
  1079  0397  0828               	movf	_workTime,w
  1080  0398  025D               	subwf	??_workCtr,w
  1081  0399                     u3475:	
  1082  0399  1803               	skipnc
  1083  039A  2B9D               	goto	l4561
  1084                           
  1085                           ;main.c: 730: {
  1086                           ;main.c: 731: workTime = 0;
  1087  039B  01A8               	clrf	_workTime
  1088  039C  01A9               	clrf	_workTime+1
  1089  039D                     l4561:	
  1090                           
  1091                           ;main.c: 732: }
  1092                           ;main.c: 733: if(workTime < tempStartTime)
  1093  039D  0862               	movf	workCtr@tempStartTime+1,w
  1094  039E  0229               	subwf	_workTime+1,w
  1095  039F  1D03               	skipz
  1096  03A0  2BA3               	goto	u3485
  1097  03A1  0861               	movf	workCtr@tempStartTime,w
  1098  03A2  0228               	subwf	_workTime,w
  1099  03A3                     u3485:	
  1100  03A3  1C03               	btfss	3,0
  1101  03A4  2B72               	goto	l4551
  1102                           
  1103                           ;main.c: 737: else
  1104                           ;main.c: 738: {
  1105                           ;main.c: 739: pwm1Stop();
  1106  03A5  23B0  118A         	fcall	_pwm1Stop
  1107  03A7                     l4567:	
  1108                           
  1109                           ;main.c: 740: }
  1110                           ;main.c: 741: }
  1111                           ;main.c: 743: if(count900s >= 910)
  1112  03A7  3003               	movlw	3
  1113  03A8  0235               	subwf	_count900s+1,w
  1114  03A9  308E               	movlw	142
  1115  03AA  1903               	skipnz
  1116  03AB  0234               	subwf	_count900s,w
  1117  03AC  1C03               	skipc
  1118  03AD  0008               	return
  1119                           
  1120                           ;main.c: 744: {
  1121                           ;main.c: 745: workStep = 0;
  1122  03AE  01FA               	clrf	_workStep
  1123                           
  1124                           ;main.c: 746: pwm1Stop();
  1125  03AF  2BB0               	ljmp	l3557
  1126  03B0                     __end_of_workCtr:	
  1127  03B0                     __ptext20:	
  1128 ;; *************** function _pwm1Stop *****************
  1129 ;; Defined at:
  1130 ;;		line 476 in file "C:\mcuproject\scm\zdt\D257_8F083_tssop20_\D257_8F083_tssop20_\main.c"
  1131 ;; Parameters:    Size  Location     Type
  1132 ;;		None
  1133 ;; Auto vars:     Size  Location     Type
  1134 ;;		None
  1135 ;; Return value:  Size  Location     Type
  1136 ;;                  1    wreg      void 
  1137 ;; Registers used:
  1138 ;;		status,2
  1139 ;; Tracked objects:
  1140 ;;		On entry : 300/0
  1141 ;;		On exit  : 300/0
  1142 ;;		Unchanged: 0/0
  1143 ;; Data sizes:     COMMON   BANK0   BANK1   BANK2
  1144 ;;      Params:         0       0       0       0
  1145 ;;      Locals:         0       0       0       0
  1146 ;;      Temps:          0       0       0       0
  1147 ;;      Totals:         0       0       0       0
  1148 ;;Total ram usage:        0 bytes
  1149 ;; Hardware stack levels used:    1
  1150 ;; Hardware stack levels required when called:    1
  1151 ;; This function calls:
  1152 ;;		Nothing
  1153 ;; This function is called by:
  1154 ;;		_checkBatAD
  1155 ;;		_chrgCtr
  1156 ;;		_workCtr
  1157 ;; This function uses a non-reentrant model
  1158 ;;
  1159                           
  1160                           
  1161                           ;psect for function _pwm1Stop
  1162  03B0                     _pwm1Stop:	
  1163  03B0                     l3557:	
  1164                           ;incstack = 0
  1165                           ; Regs used in _pwm1Stop: [status,2]
  1166                           
  1167                           
  1168                           ;main.c: 478: PWMD0L = 0;
  1169  03B0  0199               	clrf	25	;volatile
  1170                           
  1171                           ;main.c: 479: PWMCON0 &= 0xFE;
  1172  03B1  1015               	bcf	21,0	;volatile
  1173                           
  1174                           ;main.c: 480: PORTA &= 0xFE;
  1175  03B2  1683               	bsf	3,5	;RP0=1, select bank1
  1176  03B3  1006               	bcf	6,0	;volatile
  1177                           
  1178                           ;main.c: 481: motorPWMFlag = 0;
  1179  03B4  1283               	bcf	3,5	;RP0=0, select bank0
  1180  03B5  01C0               	clrf	_motorPWMFlag
  1181  03B6  0008               	return
  1182  03B7                     __end_of_pwm1Stop:	
  1183  03B7                     __ptext6:	
  1184 ;; *************** function _ledCtr *****************
  1185 ;; Defined at:
  1186 ;;		line 939 in file "C:\mcuproject\scm\zdt\D257_8F083_tssop20_\D257_8F083_tssop20_\main.c"
  1187 ;; Parameters:    Size  Location     Type
  1188 ;;		None
  1189 ;; Auto vars:     Size  Location     Type
  1190 ;;  tempMinute      1    1[BANK0 ] unsigned char 
  1191 ;; Return value:  Size  Location     Type
  1192 ;;                  1    wreg      void 
  1193 ;; Registers used:
  1194 ;;		wreg, fsr0l, fsr0h, status,2, status,0, pclath, cstack
  1195 ;; Tracked objects:
  1196 ;;		On entry : 300/0
  1197 ;;		On exit  : 300/0
  1198 ;;		Unchanged: 0/0
  1199 ;; Data sizes:     COMMON   BANK0   BANK1   BANK2
  1200 ;;      Params:         0       0       0       0
  1201 ;;      Locals:         0       1       0       0
  1202 ;;      Temps:          0       1       0       0
  1203 ;;      Totals:         0       2       0       0
  1204 ;;Total ram usage:        2 bytes
  1205 ;; Hardware stack levels used:    1
  1206 ;; Hardware stack levels required when called:    2
  1207 ;; This function calls:
  1208 ;;		___lbdiv
  1209 ;;		___lbmod
  1210 ;;		___lwdiv
  1211 ;; This function is called by:
  1212 ;;		_main
  1213 ;; This function uses a non-reentrant model
  1214 ;;
  1215                           
  1216                           
  1217                           ;psect for function _ledCtr
  1218  03B7                     _ledCtr:	
  1219                           
  1220                           ;main.c: 941: if(showWorkTime > 0)
  1221                           
  1222                           ;incstack = 0
  1223                           ; Regs used in _ledCtr: [wreg-fsr0h+status,2+status,0+pclath+cstack]
  1224  03B7  0841               	movf	_showWorkTime,w
  1225  03B8  1D03               	btfss	3,2
  1226                           
  1227                           ;main.c: 942: {
  1228                           ;main.c: 943: showWorkTime--;
  1229  03B9  03C1               	decf	_showWorkTime,f
  1230                           
  1231                           ;main.c: 944: }
  1232                           ;main.c: 945: if(showBatTime > 0)
  1233  03BA  083E               	movf	_showBatTime,w
  1234  03BB  1D03               	btfss	3,2
  1235                           
  1236                           ;main.c: 946: {
  1237                           ;main.c: 947: showBatTime--;
  1238  03BC  03BE               	decf	_showBatTime,f
  1239                           
  1240                           ;main.c: 948: }
  1241                           ;main.c: 949: if(shanshuoTime > 0)
  1242  03BD  0842               	movf	_shanshuoTime,w
  1243  03BE  1D03               	btfss	3,2
  1244                           
  1245                           ;main.c: 950: {
  1246                           ;main.c: 951: shanshuoTime--;
  1247  03BF  03C2               	decf	_shanshuoTime,f
  1248                           
  1249                           ;main.c: 952: }
  1250                           ;main.c: 953: if(firstShowCount > 0)
  1251  03C0  086B               	movf	_firstShowCount,w
  1252  03C1  1903               	btfsc	3,2
  1253  03C2  2BC7               	goto	l4589
  1254                           
  1255                           ;main.c: 954: {
  1256                           ;main.c: 955: showNumAShi = 0x7F;
  1257  03C3  307F               	movlw	127
  1258  03C4  00FB               	movwf	_showNumAShi
  1259                           
  1260                           ;main.c: 956: showNumAge = 0x7F;
  1261  03C5  00EC               	movwf	_showNumAge
  1262                           
  1263                           ;main.c: 957: }
  1264  03C6  0008               	return
  1265  03C7                     l4589:	
  1266                           
  1267                           ;main.c: 958: else if(shanshuoTime > 0 && (shanshuoTime % 100) < 50)
  1268  03C7  0842               	movf	_shanshuoTime,w
  1269  03C8  1903               	btfsc	3,2
  1270  03C9  2BD7               	goto	l4595
  1271  03CA  3064               	movlw	100
  1272  03CB  00F2               	movwf	___lbmod@divisor
  1273  03CC  0842               	movf	_shanshuoTime,w
  1274  03CD  244F  118A         	fcall	___lbmod
  1275  03CF  00DD               	movwf	??_ledCtr
  1276  03D0  3032               	movlw	50
  1277  03D1  025D               	subwf	??_ledCtr,w
  1278  03D2  1803               	skipnc
  1279  03D3  2BD7               	goto	l4595
  1280  03D4                     l4593:	
  1281                           
  1282                           ;main.c: 959: {
  1283                           ;main.c: 960: showNumAShi = 0;
  1284  03D4  01FB               	clrf	_showNumAShi
  1285                           
  1286                           ;main.c: 961: showNumAge = 0;
  1287  03D5  01EC               	clrf	_showNumAge
  1288                           
  1289                           ;main.c: 962: }
  1290  03D6  0008               	return
  1291  03D7                     l4595:	
  1292                           
  1293                           ;main.c: 963: else if(chrgFlag || (showBatTime > 0))
  1294  03D7  085B               	movf	_chrgFlag,w
  1295  03D8  1903               	btfsc	3,2
  1296  03D9  083E               	movf	_showBatTime,w
  1297  03DA  1903               	btfsc	3,2
  1298  03DB  2BF0               	goto	l4601
  1299                           
  1300                           ;main.c: 964: {
  1301                           ;main.c: 965: showNumAShi = numArray[preBatValue/10];
  1302  03DC  300A               	movlw	10
  1303  03DD  00F2               	movwf	___lbdiv@divisor
  1304  03DE  0852               	movf	_preBatValue,w
  1305  03DF  246B               	fcall	___lbdiv
  1306  03E0  3E23               	addlw	low ((_numArray-__stringbase)| (0+32768))
  1307  03E1  0084               	movwf	4
  1308  03E2  118A  2722  118A   	fcall	stringdir
  1309  03E5  00FB               	movwf	_showNumAShi
  1310                           
  1311                           ;main.c: 966: showNumAge = numArray[preBatValue%10];
  1312  03E6  300A               	movlw	10
  1313  03E7  00F2               	movwf	___lbmod@divisor
  1314  03E8  0852               	movf	_preBatValue,w
  1315  03E9  244F               	fcall	___lbmod
  1316  03EA  3E23               	addlw	low ((_numArray-__stringbase)| (0+32768))
  1317  03EB  0084               	movwf	4
  1318  03EC  118A  2722         	fcall	stringdir
  1319  03EE  00EC               	movwf	_showNumAge
  1320                           
  1321                           ;main.c: 967: }
  1322  03EF  0008               	return
  1323  03F0                     l4601:	
  1324                           
  1325                           ;main.c: 968: else if(showWorkTime)
  1326  03F0  0841               	movf	_showWorkTime,w
  1327  03F1  1903               	btfsc	3,2
  1328  03F2  2C2C               	goto	l4613
  1329                           
  1330                           ;main.c: 969: {
  1331                           ;main.c: 970: if(workStep == 0)
  1332  03F3  087A               	movf	_workStep,w
  1333  03F4  1D03               	btfss	3,2
  1334  03F5  2C02               	goto	l4607
  1335                           
  1336                           ;main.c: 971: {
  1337                           ;main.c: 972: showNumAShi = numArray[0];
  1338  03F6  3023               	movlw	low (_numArray-__stringbase)
  1339  03F7  0084               	movwf	4
  1340  03F8  118A  2722  118A   	fcall	stringdir
  1341  03FB  00FB               	movwf	_showNumAShi
  1342                           
  1343                           ;main.c: 973: showNumAge = numArray[10];
  1344  03FC  302D               	movlw	low (((_numArray+10)-__stringbase)| (0+32768))
  1345  03FD  0084               	movwf	4
  1346  03FE  118A  2722         	fcall	stringdir
  1347  0400  00EC               	movwf	_showNumAge
  1348                           
  1349                           ;main.c: 974: }
  1350  0401  0008               	return
  1351  0402                     l4607:	
  1352                           
  1353                           ;main.c: 975: else if(showWorkFlag == 1)
  1354  0402  0B43               	decfsz	_showWorkFlag,w
  1355  0403  2C18               	goto	l4611
  1356                           
  1357                           ;main.c: 976: {
  1358                           ;main.c: 977: showNumAShi = numArray[workStep/10];
  1359  0404  300A               	movlw	10
  1360  0405  00F2               	movwf	___lbdiv@divisor
  1361  0406  087A               	movf	_workStep,w
  1362  0407  246B               	fcall	___lbdiv
  1363  0408  3E23               	addlw	low ((_numArray-__stringbase)| (0+32768))
  1364  0409  0084               	movwf	4
  1365  040A  118A  2722  118A   	fcall	stringdir
  1366  040D  00FB               	movwf	_showNumAShi
  1367                           
  1368                           ;main.c: 978: showNumAge = numArray[workStep%10];
  1369  040E  300A               	movlw	10
  1370  040F  00F2               	movwf	___lbmod@divisor
  1371  0410  087A               	movf	_workStep,w
  1372  0411  244F               	fcall	___lbmod
  1373  0412  3E23               	addlw	low ((_numArray-__stringbase)| (0+32768))
  1374  0413  0084               	movwf	4
  1375  0414  118A  2722         	fcall	stringdir
  1376  0416  00EC               	movwf	_showNumAge
  1377                           
  1378                           ;main.c: 979: }
  1379  0417  0008               	return
  1380  0418                     l4611:	
  1381                           
  1382                           ;main.c: 980: else
  1383                           ;main.c: 981: {
  1384                           ;main.c: 982: showNumAShi = numArray[modelStep/10];
  1385  0418  300A               	movlw	10
  1386  0419  00F2               	movwf	___lbdiv@divisor
  1387  041A  0844               	movf	_modelStep,w
  1388  041B  246B               	fcall	___lbdiv
  1389  041C  3E23               	addlw	low ((_numArray-__stringbase)| (0+32768))
  1390  041D  0084               	movwf	4
  1391  041E  118A  2722  118A   	fcall	stringdir
  1392  0421  00FB               	movwf	_showNumAShi
  1393                           
  1394                           ;main.c: 983: showNumAge = numArray[modelStep%10];
  1395  0422  300A               	movlw	10
  1396  0423  00F2               	movwf	___lbmod@divisor
  1397  0424  0844               	movf	_modelStep,w
  1398  0425  244F               	fcall	___lbmod
  1399  0426  3E23               	addlw	low ((_numArray-__stringbase)| (0+32768))
  1400  0427  0084               	movwf	4
  1401  0428  118A  2722         	fcall	stringdir
  1402  042A  00EC               	movwf	_showNumAge
  1403  042B  0008               	return
  1404  042C                     l4613:	
  1405                           
  1406                           ;main.c: 986: else if(workStep > 0)
  1407  042C  087A               	movf	_workStep,w
  1408  042D  1903               	btfsc	3,2
  1409  042E  2BD4               	goto	l4593
  1410                           
  1411                           ;main.c: 987: {
  1412                           ;main.c: 988: unsigned char tempMinute = 15 - (count900s/60);
  1413  042F  303C               	movlw	60
  1414  0430  00F2               	movwf	___lwdiv@divisor
  1415  0431  01F3               	clrf	___lwdiv@divisor+1
  1416  0432  0835               	movf	_count900s+1,w
  1417  0433  00F5               	movwf	___lwdiv@dividend+1
  1418  0434  0834               	movf	_count900s,w
  1419  0435  00F4               	movwf	___lwdiv@dividend
  1420  0436  2486  118A         	fcall	___lwdiv
  1421  0438  0872               	movf	?___lwdiv,w
  1422  0439  3C0F               	sublw	15
  1423  043A  00DE               	movwf	ledCtr@tempMinute
  1424                           
  1425                           ;main.c: 989: showNumAShi = numArray[tempMinute/10];
  1426  043B  300A               	movlw	10
  1427  043C  00F2               	movwf	___lbdiv@divisor
  1428  043D  085E               	movf	ledCtr@tempMinute,w
  1429  043E  246B               	fcall	___lbdiv
  1430  043F  3E23               	addlw	low ((_numArray-__stringbase)| (0+32768))
  1431  0440  0084               	movwf	4
  1432  0441  118A  2722  118A   	fcall	stringdir
  1433  0444  00FB               	movwf	_showNumAShi
  1434                           
  1435                           ;main.c: 990: showNumAge = numArray[tempMinute%10];
  1436  0445  300A               	movlw	10
  1437  0446  00F2               	movwf	___lbmod@divisor
  1438  0447  085E               	movf	ledCtr@tempMinute,w
  1439  0448  244F               	fcall	___lbmod
  1440  0449  3E23               	addlw	low ((_numArray-__stringbase)| (0+32768))
  1441  044A  0084               	movwf	4
  1442  044B  118A  2722         	fcall	stringdir
  1443  044D  00EC               	movwf	_showNumAge
  1444                           
  1445                           ;main.c: 991: }
  1446  044E  0008               	return
  1447  044F                     __end_of_ledCtr:	
  1448  044F                     __ptext8:	
  1449 ;; *************** function ___lbmod *****************
  1450 ;; Defined at:
  1451 ;;		line 4 in file "C:\mcuproject\scm\SCMCU_IDE_V2.00.16_Beta5\SCMCU_IDE_V2.00.16_Beta5\data\sources\common\lbmod.c"
  1452 ;; Parameters:    Size  Location     Type
  1453 ;;  dividend        1    wreg     unsigned char 
  1454 ;;  divisor         1    2[COMMON] unsigned char 
  1455 ;; Auto vars:     Size  Location     Type
  1456 ;;  dividend        1    4[COMMON] unsigned char 
  1457 ;;  rem             1    6[COMMON] unsigned char 
  1458 ;;  counter         1    5[COMMON] unsigned char 
  1459 ;; Return value:  Size  Location     Type
  1460 ;;                  1    wreg      unsigned char 
  1461 ;; Registers used:
  1462 ;;		wreg, status,2, status,0
  1463 ;; Tracked objects:
  1464 ;;		On entry : 300/0
  1465 ;;		On exit  : 300/0
  1466 ;;		Unchanged: 300/0
  1467 ;; Data sizes:     COMMON   BANK0   BANK1   BANK2
  1468 ;;      Params:         1       0       0       0
  1469 ;;      Locals:         3       0       0       0
  1470 ;;      Temps:          1       0       0       0
  1471 ;;      Totals:         5       0       0       0
  1472 ;;Total ram usage:        5 bytes
  1473 ;; Hardware stack levels used:    1
  1474 ;; Hardware stack levels required when called:    1
  1475 ;; This function calls:
  1476 ;;		Nothing
  1477 ;; This function is called by:
  1478 ;;		_ledCtr
  1479 ;; This function uses a non-reentrant model
  1480 ;;
  1481                           
  1482                           
  1483                           ;psect for function ___lbmod
  1484  044F                     ___lbmod:	
  1485                           
  1486                           ;incstack = 0
  1487                           ; Regs used in ___lbmod: [wreg+status,2+status,0]
  1488                           ;___lbmod@dividend stored from wreg
  1489  044F  00F4               	movwf	___lbmod@dividend
  1490  0450  3008               	movlw	8
  1491  0451  00F5               	movwf	___lbmod@counter
  1492  0452  01F6               	clrf	___lbmod@rem
  1493  0453                     l4447:	
  1494  0453  0874               	movf	___lbmod@dividend,w
  1495  0454  00F3               	movwf	??___lbmod
  1496  0455  3007               	movlw	7
  1497  0456  1003               	clrc
  1498  0457                     L3:	
  1499  0457  0CF3               	rrf	??___lbmod,f
  1500  0458  3EFF               	addlw	-1
  1501  0459  1003               	clrc
  1502  045A  1D03               	skipz
  1503  045B  2C57               	goto	L3
  1504  045C  0D76               	rlf	___lbmod@rem,w
  1505  045D  0473               	iorwf	??___lbmod,w
  1506  045E  00F6               	movwf	___lbmod@rem
  1507  045F  1003               	clrc
  1508  0460  0DF4               	rlf	___lbmod@dividend,f
  1509  0461  0872               	movf	___lbmod@divisor,w
  1510  0462  0276               	subwf	___lbmod@rem,w
  1511  0463  1C03               	skipc
  1512  0464  2C67               	goto	l4455
  1513  0465  0872               	movf	___lbmod@divisor,w
  1514  0466  02F6               	subwf	___lbmod@rem,f
  1515  0467                     l4455:	
  1516  0467  0BF5               	decfsz	___lbmod@counter,f
  1517  0468  2C53               	goto	l4447
  1518  0469  0876               	movf	___lbmod@rem,w
  1519  046A  0008               	return
  1520  046B                     __end_of___lbmod:	
  1521  046B                     __ptext9:	
  1522 ;; *************** function ___lbdiv *****************
  1523 ;; Defined at:
  1524 ;;		line 4 in file "C:\mcuproject\scm\SCMCU_IDE_V2.00.16_Beta5\SCMCU_IDE_V2.00.16_Beta5\data\sources\common\lbdiv.c"
  1525 ;; Parameters:    Size  Location     Type
  1526 ;;  dividend        1    wreg     unsigned char 
  1527 ;;  divisor         1    2[COMMON] unsigned char 
  1528 ;; Auto vars:     Size  Location     Type
  1529 ;;  dividend        1    3[COMMON] unsigned char 
  1530 ;;  quotient        1    5[COMMON] unsigned char 
  1531 ;;  counter         1    4[COMMON] unsigned char 
  1532 ;; Return value:  Size  Location     Type
  1533 ;;                  1    wreg      unsigned char 
  1534 ;; Registers used:
  1535 ;;		wreg, status,2, status,0
  1536 ;; Tracked objects:
  1537 ;;		On entry : 300/0
  1538 ;;		On exit  : 300/0
  1539 ;;		Unchanged: 300/0
  1540 ;; Data sizes:     COMMON   BANK0   BANK1   BANK2
  1541 ;;      Params:         1       0       0       0
  1542 ;;      Locals:         3       0       0       0
  1543 ;;      Temps:          0       0       0       0
  1544 ;;      Totals:         4       0       0       0
  1545 ;;Total ram usage:        4 bytes
  1546 ;; Hardware stack levels used:    1
  1547 ;; Hardware stack levels required when called:    1
  1548 ;; This function calls:
  1549 ;;		Nothing
  1550 ;; This function is called by:
  1551 ;;		_ledCtr
  1552 ;; This function uses a non-reentrant model
  1553 ;;
  1554                           
  1555                           
  1556                           ;psect for function ___lbdiv
  1557  046B                     ___lbdiv:	
  1558                           
  1559                           ;incstack = 0
  1560                           ; Regs used in ___lbdiv: [wreg+status,2+status,0]
  1561                           ;___lbdiv@dividend stored from wreg
  1562  046B  00F3               	movwf	___lbdiv@dividend
  1563  046C  01F5               	clrf	___lbdiv@quotient
  1564  046D  0872               	movf	___lbdiv@divisor,w
  1565  046E  1903               	btfsc	3,2
  1566  046F  2C84               	goto	l4439
  1567  0470  01F4               	clrf	___lbdiv@counter
  1568  0471                     l4425:	
  1569  0471  0AF4               	incf	___lbdiv@counter,f
  1570  0472  1BF2               	btfsc	___lbdiv@divisor,7
  1571  0473  2C77               	goto	l2385
  1572  0474  1003               	clrc
  1573  0475  0DF2               	rlf	___lbdiv@divisor,f
  1574  0476  2C71               	goto	l4425
  1575  0477                     l2385:	
  1576  0477  1003               	clrc
  1577  0478  0DF5               	rlf	___lbdiv@quotient,f
  1578  0479  0872               	movf	___lbdiv@divisor,w
  1579  047A  0273               	subwf	___lbdiv@dividend,w
  1580  047B  1C03               	skipc
  1581  047C  2C81               	goto	L4
  1582  047D  0872               	movf	___lbdiv@divisor,w
  1583  047E  02F3               	subwf	___lbdiv@dividend,f
  1584  047F  1475               	bsf	___lbdiv@quotient,0
  1585  0480  1003               	clrc
  1586  0481                     L4:	
  1587  0481  0CF2               	rrf	___lbdiv@divisor,f
  1588  0482  0BF4               	decfsz	___lbdiv@counter,f
  1589  0483  2C77               	goto	l2385
  1590  0484                     l4439:	
  1591  0484  0875               	movf	___lbdiv@quotient,w
  1592  0485  0008               	return
  1593  0486                     __end_of___lbdiv:	
  1594  0486                     __ptext7:	
  1595 ;; *************** function ___lwdiv *****************
  1596 ;; Defined at:
  1597 ;;		line 6 in file "C:\mcuproject\scm\SCMCU_IDE_V2.00.16_Beta5\SCMCU_IDE_V2.00.16_Beta5\data\sources\common\lwdiv.c"
  1598 ;; Parameters:    Size  Location     Type
  1599 ;;  divisor         2    2[COMMON] unsigned int 
  1600 ;;  dividend        2    4[COMMON] unsigned int 
  1601 ;; Auto vars:     Size  Location     Type
  1602 ;;  quotient        2    7[COMMON] unsigned int 
  1603 ;;  counter         1    6[COMMON] unsigned char 
  1604 ;; Return value:  Size  Location     Type
  1605 ;;                  2    2[COMMON] unsigned int 
  1606 ;; Registers used:
  1607 ;;		wreg, status,2, status,0
  1608 ;; Tracked objects:
  1609 ;;		On entry : 300/0
  1610 ;;		On exit  : 300/0
  1611 ;;		Unchanged: 300/0
  1612 ;; Data sizes:     COMMON   BANK0   BANK1   BANK2
  1613 ;;      Params:         4       0       0       0
  1614 ;;      Locals:         3       0       0       0
  1615 ;;      Temps:          0       0       0       0
  1616 ;;      Totals:         7       0       0       0
  1617 ;;Total ram usage:        7 bytes
  1618 ;; Hardware stack levels used:    1
  1619 ;; Hardware stack levels required when called:    1
  1620 ;; This function calls:
  1621 ;;		Nothing
  1622 ;; This function is called by:
  1623 ;;		_workCtr
  1624 ;;		_ledCtr
  1625 ;; This function uses a non-reentrant model
  1626 ;;
  1627                           
  1628                           
  1629                           ;psect for function ___lwdiv
  1630  0486                     ___lwdiv:	
  1631                           
  1632                           ;incstack = 0
  1633                           ; Regs used in ___lwdiv: [wreg+status,2+status,0]
  1634  0486  01F7               	clrf	___lwdiv@quotient
  1635  0487  01F8               	clrf	___lwdiv@quotient+1
  1636  0488  0872               	movf	___lwdiv@divisor,w
  1637  0489  0473               	iorwf	___lwdiv@divisor+1,w
  1638  048A  1903               	btfsc	3,2
  1639  048B  2CAB               	goto	l4483
  1640  048C  01F6               	clrf	___lwdiv@counter
  1641  048D                     L1:	
  1642  048D  0AF6               	incf	___lwdiv@counter,f
  1643  048E  1BF3               	btfsc	___lwdiv@divisor+1,7
  1644  048F  2C94               	goto	l4471
  1645  0490  1003               	clrc
  1646  0491  0DF2               	rlf	___lwdiv@divisor,f
  1647  0492  0DF3               	rlf	___lwdiv@divisor+1,f
  1648  0493  2C8D               	goto	L1
  1649  0494                     l4471:	
  1650  0494  1003               	clrc
  1651  0495  0DF7               	rlf	___lwdiv@quotient,f
  1652  0496  0DF8               	rlf	___lwdiv@quotient+1,f
  1653  0497  0873               	movf	___lwdiv@divisor+1,w
  1654  0498  0275               	subwf	___lwdiv@dividend+1,w
  1655  0499  1D03               	skipz
  1656  049A  2C9D               	goto	u3285
  1657  049B  0872               	movf	___lwdiv@divisor,w
  1658  049C  0274               	subwf	___lwdiv@dividend,w
  1659  049D                     u3285:	
  1660  049D  1C03               	skipc
  1661  049E  2CA7               	goto	L2
  1662  049F  0872               	movf	___lwdiv@divisor,w
  1663  04A0  02F4               	subwf	___lwdiv@dividend,f
  1664  04A1  0873               	movf	___lwdiv@divisor+1,w
  1665  04A2  1C03               	skipc
  1666  04A3  03F5               	decf	___lwdiv@dividend+1,f
  1667  04A4  02F5               	subwf	___lwdiv@dividend+1,f
  1668  04A5  1477               	bsf	___lwdiv@quotient,0
  1669  04A6  1003               	clrc
  1670  04A7                     L2:	
  1671  04A7  0CF3               	rrf	___lwdiv@divisor+1,f
  1672  04A8  0CF2               	rrf	___lwdiv@divisor,f
  1673  04A9  0BF6               	decfsz	___lwdiv@counter,f
  1674  04AA  2C94               	goto	l4471
  1675  04AB                     l4483:	
  1676  04AB  0878               	movf	___lwdiv@quotient+1,w
  1677  04AC  00F3               	movwf	?___lwdiv+1
  1678  04AD  0877               	movf	___lwdiv@quotient,w
  1679  04AE  00F2               	movwf	?___lwdiv
  1680  04AF  0008               	return
  1681  04B0                     __end_of___lwdiv:	
  1682  04B0                     __ptext2:	
  1683 ;; *************** function _pwm1Init *****************
  1684 ;; Defined at:
  1685 ;;		line 460 in file "C:\mcuproject\scm\zdt\D257_8F083_tssop20_\D257_8F083_tssop20_\main.c"
  1686 ;; Parameters:    Size  Location     Type
  1687 ;;		None
  1688 ;; Auto vars:     Size  Location     Type
  1689 ;;		None
  1690 ;; Return value:  Size  Location     Type
  1691 ;;                  1    wreg      void 
  1692 ;; Registers used:
  1693 ;;		wreg, status,2, status,0
  1694 ;; Tracked objects:
  1695 ;;		On entry : 300/0
  1696 ;;		On exit  : 300/0
  1697 ;;		Unchanged: 0/0
  1698 ;; Data sizes:     COMMON   BANK0   BANK1   BANK2
  1699 ;;      Params:         0       0       0       0
  1700 ;;      Locals:         0       0       0       0
  1701 ;;      Temps:          0       0       0       0
  1702 ;;      Totals:         0       0       0       0
  1703 ;;Total ram usage:        0 bytes
  1704 ;; Hardware stack levels used:    1
  1705 ;; Hardware stack levels required when called:    1
  1706 ;; This function calls:
  1707 ;;		Nothing
  1708 ;; This function is called by:
  1709 ;;		_workCtr
  1710 ;; This function uses a non-reentrant model
  1711 ;;
  1712                           
  1713                           
  1714                           ;psect for function _pwm1Init
  1715  04B0                     _pwm1Init:	
  1716                           
  1717                           ;main.c: 462: if(motorPWMFlag)
  1718                           
  1719                           ;incstack = 0
  1720                           ; Regs used in _pwm1Init: [wreg+status,2+status,0]
  1721  04B0  0840               	movf	_motorPWMFlag,w
  1722  04B1  1D03               	btfss	3,2
  1723  04B2  0008               	return
  1724                           
  1725                           ;main.c: 465: }
  1726                           ;main.c: 466: PWMTH = 0x00;
  1727  04B3  0198               	clrf	24	;volatile
  1728                           
  1729                           ;main.c: 467: PWMTL = 100;
  1730  04B4  3064               	movlw	100
  1731  04B5  0097               	movwf	23	;volatile
  1732                           
  1733                           ;main.c: 468: PWMD01H = 0x00;
  1734  04B6  019E               	clrf	30	;volatile
  1735                           
  1736                           ;main.c: 469: PWMD0L = 66;
  1737  04B7  3042               	movlw	66
  1738  04B8  0099               	movwf	25	;volatile
  1739                           
  1740                           ;main.c: 470: PWMCON1 = 0xC0;
  1741  04B9  30C0               	movlw	192
  1742  04BA  0096               	movwf	22	;volatile
  1743                           
  1744                           ;main.c: 471: PWMCON2 = 0x00;
  1745  04BB  019D               	clrf	29	;volatile
  1746                           
  1747                           ;main.c: 472: PWMCON0 |= 0x61;
  1748  04BC  3061               	movlw	97
  1749  04BD  0495               	iorwf	21,f	;volatile
  1750                           
  1751                           ;main.c: 473: motorPWMFlag = 1;
  1752  04BE  01C0               	clrf	_motorPWMFlag
  1753  04BF  0AC0               	incf	_motorPWMFlag,f
  1754  04C0  0008               	return
  1755  04C1                     __end_of_pwm1Init:	
  1756                           
  1757                           	psect	text3
  1758  04C1                     __ptext3:	
  1759 ;; *************** function _refreshLed *****************
  1760 ;; Defined at:
  1761 ;;		line 69 in file "C:\mcuproject\scm\zdt\D257_8F083_tssop20_\D257_8F083_tssop20_\number.c"
  1762 ;; Parameters:    Size  Location     Type
  1763 ;;		None
  1764 ;; Auto vars:     Size  Location     Type
  1765 ;;		None
  1766 ;; Return value:  Size  Location     Type
  1767 ;;                  1    wreg      void 
  1768 ;; Registers used:
  1769 ;;		wreg, fsr0l, fsr0h, status,2, status,0, pclath, cstack
  1770 ;; Tracked objects:
  1771 ;;		On entry : 200/0
  1772 ;;		On exit  : 300/0
  1773 ;;		Unchanged: 0/0
  1774 ;; Data sizes:     COMMON   BANK0   BANK1   BANK2
  1775 ;;      Params:         0       0       0       0
  1776 ;;      Locals:         0       0       0       0
  1777 ;;      Temps:          0       0       0       0
  1778 ;;      Totals:         0       0       0       0
  1779 ;;Total ram usage:        0 bytes
  1780 ;; Hardware stack levels used:    1
  1781 ;; Hardware stack levels required when called:    2
  1782 ;; This function calls:
  1783 ;;		_DelayUs
  1784 ;;		_ledOpen
  1785 ;; This function is called by:
  1786 ;;		_main
  1787 ;; This function uses a non-reentrant model
  1788 ;;
  1789                           
  1790                           
  1791                           ;psect for function _refreshLed
  1792  04C1                     _refreshLed:	
  1793                           
  1794                           ;number.c: 73: TRISB |= 0x1F;
  1795                           
  1796                           ;incstack = 0
  1797                           ; Regs used in _refreshLed: [wreg-fsr0h+status,2+status,0+pclath+cstack]
  1798  04C1  301F               	movlw	31
  1799  04C2  1283               	bcf	3,5	;RP0=0, select bank0
  1800  04C3  0485               	iorwf	5,f	;volatile
  1801                           
  1802                           ;number.c: 74: PORTB &= 0xE0;
  1803  04C4  30E0               	movlw	224
  1804  04C5  0586               	andwf	6,f	;volatile
  1805                           
  1806                           ;number.c: 76: switch(ledCnt)
  1807  04C6  2D37               	goto	l4299
  1808  04C7                     l2066:	
  1809                           ;number.c: 77: {
  1810                           ;number.c: 78: case 0:
  1811                           
  1812                           
  1813                           ;number.c: 79: if(showNumAShi & 0x01)
  1814  04C7  1C7B               	btfss	_showNumAShi,0
  1815  04C8  2D43               	goto	l4301
  1816                           
  1817                           ;number.c: 80: {
  1818                           ;number.c: 81: ledOpen(3,2);
  1819  04C9  3002               	movlw	2
  1820  04CA  00F2               	movwf	ledOpen@low
  1821  04CB  3003               	movlw	3
  1822  04CC  2551  118A         	fcall	_ledOpen
  1823  04CE  2D43               	goto	l4301
  1824  04CF                     l2069:	
  1825                           ;number.c: 84: case 1:
  1826                           
  1827                           
  1828                           ;number.c: 85: if(showNumAShi & 0x02)
  1829  04CF  1CFB               	btfss	_showNumAShi,1
  1830  04D0  2D43               	goto	l4301
  1831                           
  1832                           ;number.c: 86: {
  1833                           ;number.c: 87: ledOpen(2,3);
  1834  04D1  3003               	movlw	3
  1835  04D2  00F2               	movwf	ledOpen@low
  1836  04D3  3002               	movlw	2
  1837  04D4  2551  118A         	fcall	_ledOpen
  1838  04D6  2D43               	goto	l4301
  1839  04D7                     l2071:	
  1840                           ;number.c: 90: case 2:
  1841                           
  1842                           
  1843                           ;number.c: 91: if(showNumAShi & 0x04)
  1844  04D7  1D7B               	btfss	_showNumAShi,2
  1845  04D8  2D43               	goto	l4301
  1846                           
  1847                           ;number.c: 92: {
  1848                           ;number.c: 93: ledOpen(3,4);
  1849  04D9  3004               	movlw	4
  1850  04DA  00F2               	movwf	ledOpen@low
  1851  04DB  3003               	movlw	3
  1852  04DC  2551  118A         	fcall	_ledOpen
  1853  04DE  2D43               	goto	l4301
  1854  04DF                     l2073:	
  1855                           ;number.c: 96: case 3:
  1856                           
  1857                           
  1858                           ;number.c: 97: if(showNumAShi & 0x08)
  1859  04DF  1DFB               	btfss	_showNumAShi,3
  1860  04E0  2D43               	goto	l4301
  1861                           
  1862                           ;number.c: 98: {
  1863                           ;number.c: 99: ledOpen(2,4);
  1864  04E1  3004               	movlw	4
  1865  04E2  00F2               	movwf	ledOpen@low
  1866  04E3  3002               	movlw	2
  1867  04E4  2551  118A         	fcall	_ledOpen
  1868  04E6  2D43               	goto	l4301
  1869  04E7                     l2075:	
  1870                           ;number.c: 102: case 4:
  1871                           
  1872                           
  1873                           ;number.c: 103: if(showNumAShi & 0x10)
  1874  04E7  1E7B               	btfss	_showNumAShi,4
  1875  04E8  2D43               	goto	l4301
  1876                           
  1877                           ;number.c: 104: {
  1878                           ;number.c: 105: ledOpen(2,5);
  1879  04E9  3005               	movlw	5
  1880  04EA  00F2               	movwf	ledOpen@low
  1881  04EB  3002               	movlw	2
  1882  04EC  2551  118A         	fcall	_ledOpen
  1883  04EE  2D43               	goto	l4301
  1884  04EF                     l2077:	
  1885                           ;number.c: 108: case 5:
  1886                           
  1887                           
  1888                           ;number.c: 109: if(showNumAShi & 0x20)
  1889  04EF  1EFB               	btfss	_showNumAShi,5
  1890  04F0  2D43               	goto	l4301
  1891                           
  1892                           ;number.c: 110: {
  1893                           ;number.c: 111: ledOpen(3,5);
  1894  04F1  3005               	movlw	5
  1895  04F2  00F2               	movwf	ledOpen@low
  1896  04F3  3003               	movlw	3
  1897  04F4  2551  118A         	fcall	_ledOpen
  1898  04F6  2D43               	goto	l4301
  1899  04F7                     l2079:	
  1900                           ;number.c: 114: case 6:
  1901                           
  1902                           
  1903                           ;number.c: 115: if(showNumAShi & 0x40)
  1904  04F7  1F7B               	btfss	_showNumAShi,6
  1905  04F8  2D43               	goto	l4301
  1906                           
  1907                           ;number.c: 116: {
  1908                           ;number.c: 117: ledOpen(4,5);
  1909  04F9  3005               	movlw	5
  1910  04FA  00F2               	movwf	ledOpen@low
  1911  04FB  3004               	movlw	4
  1912  04FC  2551  118A         	fcall	_ledOpen
  1913  04FE  2D43               	goto	l4301
  1914  04FF                     l2081:	
  1915                           ;number.c: 120: case 7:
  1916                           
  1917                           
  1918                           ;number.c: 121: if(showNumAge & 0x01)
  1919  04FF  1C6C               	btfss	_showNumAge,0
  1920  0500  2D43               	goto	l4301
  1921  0501  3002               	movlw	2
  1922                           
  1923                           ;number.c: 122: {
  1924                           ;number.c: 123: ledOpen(2,1);
  1925  0502  01F2               	clrf	ledOpen@low
  1926  0503  0AF2               	incf	ledOpen@low,f
  1927  0504  2551  118A         	fcall	_ledOpen
  1928  0506  2D43               	goto	l4301
  1929  0507                     l2083:	
  1930                           ;number.c: 126: case 8:
  1931                           
  1932                           
  1933                           ;number.c: 127: if(showNumAge & 0x02)
  1934  0507  1CEC               	btfss	_showNumAge,1
  1935  0508  2D43               	goto	l4301
  1936                           
  1937                           ;number.c: 128: {
  1938                           ;number.c: 129: ledOpen(1,2);
  1939  0509  3002               	movlw	2
  1940  050A  00F2               	movwf	ledOpen@low
  1941  050B  3001               	movlw	1
  1942  050C  2551  118A         	fcall	_ledOpen
  1943  050E  2D43               	goto	l4301
  1944  050F                     l2085:	
  1945                           ;number.c: 132: case 9:
  1946                           
  1947                           
  1948                           ;number.c: 133: if(showNumAge & 0x04)
  1949  050F  1D6C               	btfss	_showNumAge,2
  1950  0510  2D43               	goto	l4301
  1951  0511  3003               	movlw	3
  1952                           
  1953                           ;number.c: 134: {
  1954                           ;number.c: 135: ledOpen(3,1);
  1955  0512  01F2               	clrf	ledOpen@low
  1956  0513  0AF2               	incf	ledOpen@low,f
  1957  0514  2551  118A         	fcall	_ledOpen
  1958  0516  2D43               	goto	l4301
  1959  0517                     l2087:	
  1960                           ;number.c: 138: case 10:
  1961                           
  1962                           
  1963                           ;number.c: 139: if(showNumAge & 0x08)
  1964  0517  1DEC               	btfss	_showNumAge,3
  1965  0518  2D43               	goto	l4301
  1966                           
  1967                           ;number.c: 140: {
  1968                           ;number.c: 141: ledOpen(1,3);
  1969  0519  3003               	movlw	3
  1970  051A  00F2               	movwf	ledOpen@low
  1971  051B  3001               	movlw	1
  1972  051C  2551  118A         	fcall	_ledOpen
  1973  051E  2D43               	goto	l4301
  1974  051F                     l2089:	
  1975                           ;number.c: 144: case 11:
  1976                           
  1977                           
  1978                           ;number.c: 145: if(showNumAge & 0x10)
  1979  051F  1E6C               	btfss	_showNumAge,4
  1980  0520  2D43               	goto	l4301
  1981  0521  3004               	movlw	4
  1982                           
  1983                           ;number.c: 146: {
  1984                           ;number.c: 147: ledOpen(4,1);
  1985  0522  01F2               	clrf	ledOpen@low
  1986  0523  0AF2               	incf	ledOpen@low,f
  1987  0524  2551  118A         	fcall	_ledOpen
  1988  0526  2D43               	goto	l4301
  1989  0527                     l2091:	
  1990                           ;number.c: 150: case 12:
  1991                           
  1992                           
  1993                           ;number.c: 151: if(showNumAge & 0x20)
  1994  0527  1EEC               	btfss	_showNumAge,5
  1995  0528  2D43               	goto	l4301
  1996                           
  1997                           ;number.c: 152: {
  1998                           ;number.c: 153: ledOpen(1,4);
  1999  0529  3004               	movlw	4
  2000  052A  00F2               	movwf	ledOpen@low
  2001  052B  3001               	movlw	1
  2002  052C  2551  118A         	fcall	_ledOpen
  2003  052E  2D43               	goto	l4301
  2004  052F                     l2093:	
  2005                           ;number.c: 156: case 13:
  2006                           
  2007                           
  2008                           ;number.c: 157: if(showNumAge & 0x40)
  2009  052F  1F6C               	btfss	_showNumAge,6
  2010  0530  2D43               	goto	l4301
  2011                           
  2012                           ;number.c: 158: {
  2013                           ;number.c: 159: ledOpen(1,5);
  2014  0531  3005               	movlw	5
  2015  0532  00F2               	movwf	ledOpen@low
  2016  0533  3001               	movlw	1
  2017  0534  2551  118A         	fcall	_ledOpen
  2018  0536  2D43               	goto	l4301
  2019  0537                     l4299:	
  2020  0537  083A               	movf	_ledCnt,w
  2021                           
  2022                           ; Switch size 1, requested type "space"
  2023                           ; Number of cases is 14, Range of values is 0 to 13
  2024                           ; switch strategies available:
  2025                           ; Name         Instructions Cycles
  2026                           ; direct_byte           35     7 (fixed)
  2027                           ; simple_byte           43    22 (average)
  2028                           ; jumptable            260     6 (fixed)
  2029                           ;	Chosen strategy is direct_byte
  2030  0538  0084               	movwf	4
  2031  0539  300E               	movlw	14
  2032  053A  0204               	subwf	4,w
  2033  053B  1803               	skipnc
  2034  053C  2D43               	goto	l4301
  2035  053D  3007               	movlw	high S4701
  2036  053E  008A               	movwf	10
  2037  053F  1003               	clrc
  2038  0540  0D04               	rlf	4,w
  2039  0541  3E82               	addlw	low S4701
  2040  0542  0082               	movwf	2
  2041  0543                     l4301:	
  2042                           
  2043                           ;number.c: 165: DelayUs(50);
  2044  0543  3032               	movlw	50
  2045  0544  259E               	fcall	_DelayUs
  2046                           
  2047                           ;number.c: 166: TRISB |= 0x1F;
  2048  0545  301F               	movlw	31
  2049  0546  1283               	bcf	3,5	;RP0=0, select bank0
  2050  0547  1303               	bcf	3,6	;RP1=0, select bank0
  2051  0548  0485               	iorwf	5,f	;volatile
  2052                           
  2053                           ;number.c: 167: PORTB &= 0xE0;
  2054  0549  30E0               	movlw	224
  2055  054A  0586               	andwf	6,f	;volatile
  2056                           
  2057                           ;number.c: 168: if(++ledCnt > 13)
  2058  054B  300E               	movlw	14
  2059  054C  0ABA               	incf	_ledCnt,f
  2060  054D  023A               	subwf	_ledCnt,w
  2061  054E  1803               	btfsc	3,0
  2062                           
  2063                           ;number.c: 169: {
  2064                           ;number.c: 170: ledCnt = 0;
  2065  054F  01BA               	clrf	_ledCnt
  2066  0550  0008               	return
  2067  0551                     __end_of_refreshLed:	
  2068  0551                     __ptext4:	
  2069 ;; *************** function _ledOpen *****************
  2070 ;; Defined at:
  2071 ;;		line 12 in file "C:\mcuproject\scm\zdt\D257_8F083_tssop20_\D257_8F083_tssop20_\number.c"
  2072 ;; Parameters:    Size  Location     Type
  2073 ;;  hight           1    wreg     unsigned char 
  2074 ;;  low             1    2[COMMON] unsigned char 
  2075 ;; Auto vars:     Size  Location     Type
  2076 ;;  hight           1    3[COMMON] unsigned char 
  2077 ;; Return value:  Size  Location     Type
  2078 ;;                  1    wreg      void 
  2079 ;; Registers used:
  2080 ;;		wreg, fsr0l, fsr0h, status,2, status,0
  2081 ;; Tracked objects:
  2082 ;;		On entry : 200/0
  2083 ;;		On exit  : 200/0
  2084 ;;		Unchanged: 0/0
  2085 ;; Data sizes:     COMMON   BANK0   BANK1   BANK2
  2086 ;;      Params:         1       0       0       0
  2087 ;;      Locals:         1       0       0       0
  2088 ;;      Temps:          0       0       0       0
  2089 ;;      Totals:         2       0       0       0
  2090 ;;Total ram usage:        2 bytes
  2091 ;; Hardware stack levels used:    1
  2092 ;; Hardware stack levels required when called:    1
  2093 ;; This function calls:
  2094 ;;		Nothing
  2095 ;; This function is called by:
  2096 ;;		_refreshLed
  2097 ;; This function uses a non-reentrant model
  2098 ;;
  2099                           
  2100                           
  2101                           ;psect for function _ledOpen
  2102  0551                     _ledOpen:	
  2103                           
  2104                           ;incstack = 0
  2105                           ; Regs used in _ledOpen: [wreg-fsr0h+status,2+status,0]
  2106                           ;ledOpen@hight stored from wreg
  2107  0551  00F3               	movwf	ledOpen@hight
  2108                           
  2109                           ;number.c: 14: switch(hight)
  2110  0552  2D67               	goto	l3705
  2111  0553                     l2047:	
  2112                           ;number.c: 15: {
  2113                           ;number.c: 16: case 1:
  2114                           
  2115                           
  2116                           ;number.c: 17: TRISB &= 0xFD;
  2117  0553  1283               	bcf	3,5	;RP0=0, select bank0
  2118  0554  1085               	bcf	5,1	;volatile
  2119                           
  2120                           ;number.c: 18: RB1 = 1;
  2121  0555  1486               	bsf	6,1	;volatile
  2122                           
  2123                           ;number.c: 19: break;
  2124  0556  2D8C               	goto	l3709
  2125  0557                     l2049:	
  2126                           ;number.c: 20: case 2:
  2127                           
  2128                           
  2129                           ;number.c: 21: TRISB &= 0xFB;
  2130  0557  1283               	bcf	3,5	;RP0=0, select bank0
  2131  0558  1105               	bcf	5,2	;volatile
  2132                           
  2133                           ;number.c: 22: RB2 = 1;
  2134  0559  1506               	bsf	6,2	;volatile
  2135                           
  2136                           ;number.c: 23: break;
  2137  055A  2D8C               	goto	l3709
  2138  055B                     l2050:	
  2139                           ;number.c: 24: case 3:
  2140                           
  2141                           
  2142                           ;number.c: 25: TRISB &= 0xF7;
  2143  055B  1283               	bcf	3,5	;RP0=0, select bank0
  2144  055C  1185               	bcf	5,3	;volatile
  2145                           
  2146                           ;number.c: 26: RB3 = 1;
  2147  055D  1586               	bsf	6,3	;volatile
  2148                           
  2149                           ;number.c: 27: break;
  2150  055E  2D8C               	goto	l3709
  2151  055F                     l2051:	
  2152                           ;number.c: 28: case 4:
  2153                           
  2154                           
  2155                           ;number.c: 29: TRISB &= 0xEF;
  2156  055F  1283               	bcf	3,5	;RP0=0, select bank0
  2157  0560  1205               	bcf	5,4	;volatile
  2158                           
  2159                           ;number.c: 30: RB4 = 1;
  2160  0561  1606               	bsf	6,4	;volatile
  2161                           
  2162                           ;number.c: 31: break;
  2163  0562  2D8C               	goto	l3709
  2164  0563                     l2052:	
  2165                           ;number.c: 32: case 5:
  2166                           
  2167                           
  2168                           ;number.c: 33: TRISB &= 0xFE;
  2169  0563  1283               	bcf	3,5	;RP0=0, select bank0
  2170  0564  1005               	bcf	5,0	;volatile
  2171                           
  2172                           ;number.c: 34: RB0 = 1;
  2173  0565  1406               	bsf	6,0	;volatile
  2174                           
  2175                           ;number.c: 35: break;
  2176  0566  2D8C               	goto	l3709
  2177  0567                     l3705:	
  2178  0567  0873               	movf	ledOpen@hight,w
  2179                           
  2180                           ; Switch size 1, requested type "space"
  2181                           ; Number of cases is 5, Range of values is 1 to 5
  2182                           ; switch strategies available:
  2183                           ; Name         Instructions Cycles
  2184                           ; simple_byte           16     9 (average)
  2185                           ; direct_byte           20    10 (fixed)
  2186                           ; jumptable            263     9 (fixed)
  2187                           ;	Chosen strategy is simple_byte
  2188  0568  3A01               	xorlw	1	; case 1
  2189  0569  1903               	skipnz
  2190  056A  2D53               	goto	l2047
  2191  056B  3A03               	xorlw	3	; case 2
  2192  056C  1903               	skipnz
  2193  056D  2D57               	goto	l2049
  2194  056E  3A01               	xorlw	1	; case 3
  2195  056F  1903               	skipnz
  2196  0570  2D5B               	goto	l2050
  2197  0571  3A07               	xorlw	7	; case 4
  2198  0572  1903               	skipnz
  2199  0573  2D5F               	goto	l2051
  2200  0574  3A01               	xorlw	1	; case 5
  2201  0575  1903               	skipnz
  2202  0576  2D63               	goto	l2052
  2203  0577  2D8C               	goto	l3709
  2204  0578                     l2055:	
  2205                           ;number.c: 40: {
  2206                           ;number.c: 41: case 1:
  2207                           
  2208                           
  2209                           ;number.c: 42: TRISB &= 0xFD;
  2210  0578  1283               	bcf	3,5	;RP0=0, select bank0
  2211  0579  1085               	bcf	5,1	;volatile
  2212                           
  2213                           ;number.c: 43: RB1 = 0;
  2214  057A  1086               	bcf	6,1	;volatile
  2215                           
  2216                           ;number.c: 44: break;
  2217  057B  0008               	return
  2218  057C                     l2057:	
  2219                           ;number.c: 45: case 2:
  2220                           
  2221                           
  2222                           ;number.c: 46: TRISB &= 0xFB;
  2223  057C  1283               	bcf	3,5	;RP0=0, select bank0
  2224  057D  1105               	bcf	5,2	;volatile
  2225                           
  2226                           ;number.c: 47: RB2 = 0;
  2227  057E  1106               	bcf	6,2	;volatile
  2228                           
  2229                           ;number.c: 48: break;
  2230  057F  0008               	return
  2231  0580                     l2058:	
  2232                           ;number.c: 49: case 3:
  2233                           
  2234                           
  2235                           ;number.c: 50: TRISB &= 0xF7;
  2236  0580  1283               	bcf	3,5	;RP0=0, select bank0
  2237  0581  1185               	bcf	5,3	;volatile
  2238                           
  2239                           ;number.c: 51: RB3 = 0;
  2240  0582  1186               	bcf	6,3	;volatile
  2241                           
  2242                           ;number.c: 52: break;
  2243  0583  0008               	return
  2244  0584                     l2059:	
  2245                           ;number.c: 53: case 4:
  2246                           
  2247                           
  2248                           ;number.c: 54: TRISB &= 0xEF;
  2249  0584  1283               	bcf	3,5	;RP0=0, select bank0
  2250  0585  1205               	bcf	5,4	;volatile
  2251                           
  2252                           ;number.c: 55: RB4 = 0;
  2253  0586  1206               	bcf	6,4	;volatile
  2254                           
  2255                           ;number.c: 56: break;
  2256  0587  0008               	return
  2257  0588                     l2060:	
  2258                           ;number.c: 57: case 5:
  2259                           
  2260                           
  2261                           ;number.c: 58: TRISB &= 0xFE;
  2262  0588  1283               	bcf	3,5	;RP0=0, select bank0
  2263  0589  1005               	bcf	5,0	;volatile
  2264                           
  2265                           ;number.c: 59: RB0 = 0;
  2266  058A  1006               	bcf	6,0	;volatile
  2267                           
  2268                           ;number.c: 60: break;
  2269  058B  0008               	return
  2270  058C                     l3709:	
  2271  058C  0872               	movf	ledOpen@low,w
  2272                           
  2273                           ; Switch size 1, requested type "space"
  2274                           ; Number of cases is 5, Range of values is 1 to 5
  2275                           ; switch strategies available:
  2276                           ; Name         Instructions Cycles
  2277                           ; simple_byte           16     9 (average)
  2278                           ; direct_byte           20    10 (fixed)
  2279                           ; jumptable            263     9 (fixed)
  2280                           ;	Chosen strategy is simple_byte
  2281  058D  3A01               	xorlw	1	; case 1
  2282  058E  1903               	skipnz
  2283  058F  2D78               	goto	l2055
  2284  0590  3A03               	xorlw	3	; case 2
  2285  0591  1903               	skipnz
  2286  0592  2D7C               	goto	l2057
  2287  0593  3A01               	xorlw	1	; case 3
  2288  0594  1903               	skipnz
  2289  0595  2D80               	goto	l2058
  2290  0596  3A07               	xorlw	7	; case 4
  2291  0597  1903               	skipnz
  2292  0598  2D84               	goto	l2059
  2293  0599  3A01               	xorlw	1	; case 5
  2294  059A  1903               	skipnz
  2295  059B  2D88               	goto	l2060
  2296  059C  2D9D               	goto	l2062
  2297  059D                     l2062:	
  2298  059D  0008               	return
  2299  059E                     __end_of_ledOpen:	
  2300  059E                     __ptext5:	
  2301 ;; *************** function _DelayUs *****************
  2302 ;; Defined at:
  2303 ;;		line 180 in file "C:\mcuproject\scm\zdt\D257_8F083_tssop20_\D257_8F083_tssop20_\number.c"
  2304 ;; Parameters:    Size  Location     Type
  2305 ;;  Time            1    wreg     unsigned char 
  2306 ;; Auto vars:     Size  Location     Type
  2307 ;;  Time            1    2[COMMON] unsigned char 
  2308 ;;  a               1    3[COMMON] unsigned char 
  2309 ;; Return value:  Size  Location     Type
  2310 ;;                  1    wreg      void 
  2311 ;; Registers used:
  2312 ;;		wreg, status,2, status,0
  2313 ;; Tracked objects:
  2314 ;;		On entry : 200/0
  2315 ;;		On exit  : 0/0
  2316 ;;		Unchanged: 0/0
  2317 ;; Data sizes:     COMMON   BANK0   BANK1   BANK2
  2318 ;;      Params:         0       0       0       0
  2319 ;;      Locals:         2       0       0       0
  2320 ;;      Temps:          0       0       0       0
  2321 ;;      Totals:         2       0       0       0
  2322 ;;Total ram usage:        2 bytes
  2323 ;; Hardware stack levels used:    1
  2324 ;; Hardware stack levels required when called:    1
  2325 ;; This function calls:
  2326 ;;		Nothing
  2327 ;; This function is called by:
  2328 ;;		_refreshLed
  2329 ;; This function uses a non-reentrant model
  2330 ;;
  2331                           
  2332                           
  2333                           ;psect for function _DelayUs
  2334  059E                     _DelayUs:	
  2335                           
  2336                           ;incstack = 0
  2337                           ; Regs used in _DelayUs: [wreg+status,2+status,0]
  2338                           ;DelayUs@Time stored from wreg
  2339  059E  00F2               	movwf	DelayUs@Time
  2340                           
  2341                           ;number.c: 182: unsigned char a;
  2342                           ;number.c: 183: for(a=0;a<Time;a++)
  2343  059F  01F3               	clrf	DelayUs@a
  2344  05A0                     l3715:	
  2345  05A0  0872               	movf	DelayUs@Time,w
  2346  05A1  0273               	subwf	DelayUs@a,w
  2347  05A2  1803               	btfsc	3,0
  2348  05A3  0008               	return
  2349                           
  2350                           ;number.c: 184: {
  2351                           ;number.c: 185: __nop();
  2352  05A4  0000               	nop
  2353  05A5  0AF3               	incf	DelayUs@a,f
  2354  05A6  2DA0               	goto	l3715
  2355  05A7                     __end_of_DelayUs:	
  2356                           
  2357                           	psect	swtext1
  2358  0782                     __pswtext1:	
  2359  0782                     S4701:	
  2360  0782  118A  2CC7         	ljmp	l2066
  2361  0784  118A  2CCF         	ljmp	l2069
  2362  0786  118A  2CD7         	ljmp	l2071
  2363  0788  118A  2CDF         	ljmp	l2073
  2364  078A  118A  2CE7         	ljmp	l2075
  2365  078C  118A  2CEF         	ljmp	l2077
  2366  078E  118A  2CF7         	ljmp	l2079
  2367  0790  118A  2CFF         	ljmp	l2081
  2368  0792  118A  2D07         	ljmp	l2083
  2369  0794  118A  2D0F         	ljmp	l2085
  2370  0796  118A  2D17         	ljmp	l2087
  2371  0798  118A  2D1F         	ljmp	l2089
  2372  079A  118A  2D27         	ljmp	l2091
  2373  079C  118A  2D2F         	ljmp	l2093
  2374                           
  2375                           	psect	text10
  2376  05A7                     __ptext10:	
  2377 ;; *************** function _keyCtr *****************
  2378 ;; Defined at:
  2379 ;;		line 851 in file "C:\mcuproject\scm\zdt\D257_8F083_tssop20_\D257_8F083_tssop20_\main.c"
  2380 ;; Parameters:    Size  Location     Type
  2381 ;;		None
  2382 ;; Auto vars:     Size  Location     Type
  2383 ;;  kclick          1    3[COMMON] unsigned char 
  2384 ;; Return value:  Size  Location     Type
  2385 ;;                  1    wreg      void 
  2386 ;; Registers used:
  2387 ;;		wreg, status,2, status,0, pclath, cstack
  2388 ;; Tracked objects:
  2389 ;;		On entry : 300/0
  2390 ;;		On exit  : 300/0
  2391 ;;		Unchanged: 0/0
  2392 ;; Data sizes:     COMMON   BANK0   BANK1   BANK2
  2393 ;;      Params:         0       0       0       0
  2394 ;;      Locals:         1       0       0       0
  2395 ;;      Temps:          0       0       0       0
  2396 ;;      Totals:         1       0       0       0
  2397 ;;Total ram usage:        1 bytes
  2398 ;; Hardware stack levels used:    1
  2399 ;; Hardware stack levels required when called:    2
  2400 ;; This function calls:
  2401 ;;		_keyRead
  2402 ;;		_keyRead2
  2403 ;;		_keyRead3
  2404 ;;		_keyRead4
  2405 ;; This function is called by:
  2406 ;;		_main
  2407 ;; This function uses a non-reentrant model
  2408 ;;
  2409                           
  2410                           
  2411                           ;psect for function _keyCtr
  2412  05A7                     _keyCtr:	
  2413                           
  2414                           ;main.c: 853: TRISA = 0xE2;
  2415                           
  2416                           ;incstack = 0
  2417                           ; Regs used in _keyCtr: [wreg+status,2+status,0+pclath+cstack]
  2418  05A7  30E2               	movlw	226
  2419  05A8  1683               	bsf	3,5	;RP0=1, select bank1
  2420  05A9  0085               	movwf	5	;volatile
  2421                           
  2422                           ;main.c: 854: WPUA = 0xC0;
  2423  05AA  30C0               	movlw	192
  2424  05AB  0088               	movwf	8	;volatile
  2425                           
  2426                           ;main.c: 855: TRISB = 0xE0;
  2427  05AC  30E0               	movlw	224
  2428                           
  2429                           ;main.c: 856: WPUB = 0x80;
  2430                           
  2431                           ;main.c: 857: RA3 = 0;
  2432  05AD  267E  118A         	fcall	PL10	;call to abstracted procedure
  2433  05AF  1186               	bcf	6,3	;volatile
  2434                           
  2435                           ;main.c: 858: char kclick = keyRead(0x80 & (~PORTB));
  2436  05B0  1283               	bcf	3,5	;RP0=0, select bank0
  2437  05B1  0906               	comf	6,w	;volatile
  2438  05B2  3980               	andlw	128
  2439  05B3  2626  118A         	fcall	_keyRead
  2440  05B5  00F3               	movwf	keyCtr@kclick
  2441                           
  2442                           ;main.c: 859: if(kclick == 2)
  2443  05B6  3A02               	xorlw	2
  2444  05B7  1D03               	btfss	3,2
  2445  05B8  2DCD               	goto	l4157
  2446                           
  2447                           ;main.c: 860: {
  2448                           ;main.c: 861: if(workStep > 0)
  2449  05B9  087A               	movf	_workStep,w
  2450  05BA  1903               	btfsc	3,2
  2451  05BB  2DC2               	goto	l1158
  2452  05BC  301E               	movlw	30
  2453                           
  2454                           ;main.c: 864: closeTime = 0;
  2455  05BD  01FA               	clrf	_workStep
  2456                           
  2457                           ;main.c: 865: beepTime = 30;
  2458  05BE  00EA               	movwf	_beepTime
  2459                           
  2460                           ;main.c: 866: showWorkTime = 250;
  2461  05BF  30FA               	movlw	250
  2462  05C0  00C1               	movwf	_showWorkTime
  2463                           
  2464                           ;main.c: 867: }
  2465  05C1  2DD4               	goto	l4163
  2466  05C2                     l1158:	
  2467  05C2  30FA               	movlw	250
  2468                           
  2469                           ;main.c: 868: else
  2470                           ;main.c: 869: {
  2471                           ;main.c: 870: workStep = 1;
  2472  05C3  01FA               	clrf	_workStep
  2473  05C4  0AFA               	incf	_workStep,f
  2474                           
  2475                           ;main.c: 871: modelStep = 1;
  2476  05C5  01C4               	clrf	_modelStep
  2477  05C6  0AC4               	incf	_modelStep,f
  2478                           
  2479                           ;main.c: 872: showWorkFlag = 1;
  2480  05C7  01C3               	clrf	_showWorkFlag
  2481  05C8  0AC3               	incf	_showWorkFlag,f
  2482                           
  2483                           ;main.c: 873: showWorkTime = 250;
  2484  05C9  00C1               	movwf	_showWorkTime
  2485                           
  2486                           ;main.c: 874: beepTime = 30;
  2487  05CA  301E               	movlw	30
  2488  05CB  00EA               	movwf	_beepTime
  2489  05CC  2DD4               	goto	l4163
  2490  05CD                     l4157:	
  2491                           
  2492                           ;main.c: 877: else if(kclick == 1 && workStep == 0)
  2493  05CD  0B73               	decfsz	keyCtr@kclick,w
  2494  05CE  2DD4               	goto	l4163
  2495  05CF  087A               	movf	_workStep,w
  2496  05D0  1D03               	btfss	3,2
  2497  05D1  2DD4               	goto	l4163
  2498                           
  2499                           ;main.c: 878: {
  2500                           ;main.c: 879: showBatTime = 250;
  2501  05D2  30FA               	movlw	250
  2502  05D3  00BE               	movwf	_showBatTime
  2503  05D4                     l4163:	
  2504                           
  2505                           ;main.c: 880: }
  2506                           ;main.c: 881: if(workStep == 0)
  2507  05D4  087A               	movf	_workStep,w
  2508  05D5  1903               	btfsc	3,2
  2509  05D6  0008               	return
  2510                           
  2511                           ;main.c: 884: }
  2512                           ;main.c: 885: kclick = keyRead4(0x40 & (~PORTA));
  2513  05D7  1683               	bsf	3,5	;RP0=1, select bank1
  2514  05D8  0906               	comf	6,w	;volatile
  2515  05D9  3940               	andlw	64
  2516  05DA  266A  118A         	fcall	_keyRead4
  2517  05DC  00F3               	movwf	keyCtr@kclick
  2518                           
  2519                           ;main.c: 886: if(kclick == 1)
  2520  05DD  0B73               	decfsz	keyCtr@kclick,w
  2521  05DE  2DED               	goto	l1164
  2522                           
  2523                           ;main.c: 887: {
  2524                           ;main.c: 888: if(workStep < 18)
  2525  05DF  3012               	movlw	18
  2526  05E0  027A               	subwf	_workStep,w
  2527  05E1  1803               	skipnc
  2528  05E2  2DE6               	goto	l1165
  2529  05E3  301E               	movlw	30
  2530                           
  2531                           ;main.c: 889: {
  2532                           ;main.c: 890: workStep++;
  2533  05E4  0AFA               	incf	_workStep,f
  2534                           
  2535                           ;main.c: 891: beepTime = 30;
  2536  05E5  00EA               	movwf	_beepTime
  2537  05E6                     l1165:	
  2538                           
  2539                           ;main.c: 892: }
  2540                           ;main.c: 893: if(showWorkFlag == 0)
  2541  05E6  0843               	movf	_showWorkFlag,w
  2542  05E7  1D03               	btfss	3,2
  2543  05E8  2DEB               	goto	l1166
  2544                           
  2545                           ;main.c: 894: {
  2546                           ;main.c: 895: showWorkFlag = 1;
  2547                           
  2548                           ;main.c: 896: shanshuoTime = 200;
  2549  05E9  2684  118A         	fcall	PL12	;call to abstracted procedure
  2550  05EB                     l1166:	
  2551                           
  2552                           ;main.c: 897: }
  2553                           ;main.c: 898: showWorkTime = 250;
  2554  05EB  30FA               	movlw	250
  2555  05EC  00C1               	movwf	_showWorkTime
  2556  05ED                     l1164:	
  2557                           
  2558                           ;main.c: 899: }
  2559                           ;main.c: 900: TRISA = 0x6A;
  2560  05ED  306A               	movlw	106
  2561  05EE  1683               	bsf	3,5	;RP0=1, select bank1
  2562  05EF  0085               	movwf	5	;volatile
  2563                           
  2564                           ;main.c: 901: WPUA = 0x48;
  2565  05F0  3048               	movlw	72
  2566  05F1  0088               	movwf	8	;volatile
  2567                           
  2568                           ;main.c: 902: TRISB = 0xE0;
  2569  05F2  30E0               	movlw	224
  2570                           
  2571                           ;main.c: 903: WPUB = 0x80;
  2572                           
  2573                           ;main.c: 904: RA7 = 0;
  2574  05F3  267E  118A         	fcall	PL10	;call to abstracted procedure
  2575  05F5  1386               	bcf	6,7	;volatile
  2576                           
  2577                           ;main.c: 905: kclick = keyRead2(0x80 & (~PORTB));
  2578  05F6  1283               	bcf	3,5	;RP0=0, select bank0
  2579  05F7  0906               	comf	6,w	;volatile
  2580  05F8  3980               	andlw	128
  2581  05F9  2644  118A         	fcall	_keyRead2
  2582  05FB  00F3               	movwf	keyCtr@kclick
  2583                           
  2584                           ;main.c: 906: if(kclick == 1)
  2585  05FC  0B73               	decfsz	keyCtr@kclick,w
  2586  05FD  2E10               	goto	l4203
  2587                           
  2588                           ;main.c: 907: {
  2589                           ;main.c: 908: if(++modelStep > 18)
  2590  05FE  3013               	movlw	19
  2591  05FF  0AC4               	incf	_modelStep,f
  2592  0600  0244               	subwf	_modelStep,w
  2593  0601  1C03               	skipc
  2594  0602  2E05               	goto	l4191
  2595                           
  2596                           ;main.c: 909: {
  2597                           ;main.c: 910: modelStep = 1;
  2598  0603  01C4               	clrf	_modelStep
  2599  0604  0AC4               	incf	_modelStep,f
  2600  0605                     l4191:	
  2601                           
  2602                           ;main.c: 911: }
  2603                           ;main.c: 912: beepTime = 30;
  2604  0605  301E               	movlw	30
  2605  0606  00EA               	movwf	_beepTime
  2606                           
  2607                           ;main.c: 913: workTime = 0;
  2608  0607  01A8               	clrf	_workTime
  2609  0608  01A9               	clrf	_workTime+1
  2610                           
  2611                           ;main.c: 914: if(showWorkFlag == 1)
  2612  0609  0B43               	decfsz	_showWorkFlag,w
  2613  060A  2E0E               	goto	l4201
  2614  060B  30C8               	movlw	200
  2615                           
  2616                           ;main.c: 915: {
  2617                           ;main.c: 916: showWorkFlag = 0;
  2618  060C  01C3               	clrf	_showWorkFlag
  2619                           
  2620                           ;main.c: 917: shanshuoTime = 200;
  2621  060D  00C2               	movwf	_shanshuoTime
  2622  060E                     l4201:	
  2623                           
  2624                           ;main.c: 918: }
  2625                           ;main.c: 919: showWorkTime = 250;
  2626  060E  30FA               	movlw	250
  2627  060F  00C1               	movwf	_showWorkTime
  2628  0610                     l4203:	
  2629                           
  2630                           ;main.c: 920: }
  2631                           ;main.c: 921: kclick = keyRead3(0x40 & (~PORTA));
  2632  0610  1683               	bsf	3,5	;RP0=1, select bank1
  2633  0611  0906               	comf	6,w	;volatile
  2634  0612  3940               	andlw	64
  2635  0613  2656  118A         	fcall	_keyRead3
  2636  0615  00F3               	movwf	keyCtr@kclick
  2637                           
  2638                           ;main.c: 922: if(kclick == 1)
  2639  0616  0B73               	decfsz	keyCtr@kclick,w
  2640  0617  0008               	return
  2641                           
  2642                           ;main.c: 923: {
  2643                           ;main.c: 924: if(workStep > 1)
  2644  0618  3002               	movlw	2
  2645  0619  027A               	subwf	_workStep,w
  2646  061A  1C03               	skipc
  2647  061B  2E1F               	goto	l1171
  2648  061C  301E               	movlw	30
  2649                           
  2650                           ;main.c: 925: {
  2651                           ;main.c: 926: workStep--;
  2652  061D  03FA               	decf	_workStep,f
  2653                           
  2654                           ;main.c: 927: beepTime = 30;
  2655  061E  00EA               	movwf	_beepTime
  2656  061F                     l1171:	
  2657                           
  2658                           ;main.c: 928: }
  2659                           ;main.c: 929: if(showWorkFlag == 0)
  2660  061F  0843               	movf	_showWorkFlag,w
  2661  0620  1D03               	btfss	3,2
  2662  0621  2E23               	goto	l1172
  2663                           
  2664                           ;main.c: 930: {
  2665                           ;main.c: 931: showWorkFlag = 1;
  2666                           
  2667                           ;main.c: 932: shanshuoTime = 200;
  2668  0622  2684               	fcall	PL12	;call to abstracted procedure
  2669  0623                     l1172:	
  2670                           
  2671                           ;main.c: 933: }
  2672                           ;main.c: 934: showWorkTime = 250;
  2673  0623  30FA               	movlw	250
  2674  0624  00C1               	movwf	_showWorkTime
  2675  0625  0008               	return
  2676  0626                     __end_of_keyCtr:	
  2677  0626                     __ptext14:	
  2678 ;; *************** function _keyRead *****************
  2679 ;; Defined at:
  2680 ;;		line 751 in file "C:\mcuproject\scm\zdt\D257_8F083_tssop20_\D257_8F083_tssop20_\main.c"
  2681 ;; Parameters:    Size  Location     Type
  2682 ;;  keyStatus       1    wreg     unsigned char 
  2683 ;; Auto vars:     Size  Location     Type
  2684 ;;  keyStatus       1    2[COMMON] unsigned char 
  2685 ;; Return value:  Size  Location     Type
  2686 ;;                  1    wreg      unsigned char 
  2687 ;; Registers used:
  2688 ;;		wreg, status,2, status,0
  2689 ;; Tracked objects:
  2690 ;;		On entry : 300/0
  2691 ;;		On exit  : 300/0
  2692 ;;		Unchanged: 0/0
  2693 ;; Data sizes:     COMMON   BANK0   BANK1   BANK2
  2694 ;;      Params:         0       0       0       0
  2695 ;;      Locals:         1       0       0       0
  2696 ;;      Temps:          0       0       0       0
  2697 ;;      Totals:         1       0       0       0
  2698 ;;Total ram usage:        1 bytes
  2699 ;; Hardware stack levels used:    1
  2700 ;; Hardware stack levels required when called:    1
  2701 ;; This function calls:
  2702 ;;		Nothing
  2703 ;; This function is called by:
  2704 ;;		_keyCtr
  2705 ;; This function uses a non-reentrant model
  2706 ;;
  2707                           
  2708                           
  2709                           ;psect for function _keyRead
  2710  0626                     _keyRead:	
  2711                           
  2712                           ;incstack = 0
  2713                           ; Regs used in _keyRead: [wreg+status,2+status,0]
  2714                           ;keyRead@keyStatus stored from wreg
  2715  0626  00F2               	movwf	keyRead@keyStatus
  2716                           
  2717                           ;main.c: 753: if(keyStatus)
  2718  0627  0872               	movf	keyRead@keyStatus,w
  2719  0628  3078               	movlw	120
  2720  0629  1903               	btfsc	3,2
  2721  062A  2E38               	goto	L6
  2722                           
  2723                           ;main.c: 754: {
  2724                           ;main.c: 755: keyCount++;
  2725  062B  0AD8               	incf	_keyCount,f
  2726                           
  2727                           ;main.c: 756: if(keyCount >= 120)
  2728  062C  0258               	subwf	_keyCount,w
  2729  062D  1C03               	skipc
  2730  062E  3400               	retlw	0
  2731                           
  2732                           ;main.c: 757: {
  2733                           ;main.c: 758: keyCount = 120;
  2734  062F  3078               	movlw	120
  2735  0630  00D8               	movwf	_keyCount
  2736                           
  2737                           ;main.c: 759: if(longPressFlag == 0)
  2738  0631  0859               	movf	_longPressFlag,w
  2739  0632  1D03               	btfss	3,2
  2740  0633  3400               	retlw	0
  2741  0634  3002               	movlw	2
  2742                           
  2743                           ;main.c: 760: {
  2744                           ;main.c: 761: longPressFlag = 1;
  2745  0635  01D9               	clrf	_longPressFlag
  2746  0636  0AD9               	incf	_longPressFlag,f
  2747                           
  2748                           ;main.c: 762: return 2;
  2749  0637  0008               	return
  2750  0638                     L6:	
  2751                           ;main.c: 766: else
  2752                           ;main.c: 767: {
  2753                           ;main.c: 768: if(keyCount >= 120)
  2754                           
  2755  0638  0258               	subwf	_keyCount,w
  2756  0639  1C03               	skipc
  2757  063A  2E3E               	goto	l3621
  2758                           
  2759                           ;main.c: 769: {
  2760                           ;main.c: 770: keyCount = 0;
  2761  063B  01D8               	clrf	_keyCount
  2762  063C                     L5:	
  2763                           
  2764                           ;main.c: 771: longPressFlag = 0;
  2765  063C  01D9               	clrf	_longPressFlag
  2766                           
  2767                           ;main.c: 772: return 0;
  2768  063D  3400               	retlw	0
  2769  063E                     l3621:	
  2770                           
  2771                           ;main.c: 774: else if(keyCount >= 5)
  2772  063E  3005               	movlw	5
  2773  063F  0258               	subwf	_keyCount,w
  2774                           
  2775                           ;main.c: 775: {
  2776                           ;main.c: 776: keyCount = 0;
  2777  0640  01D8               	clrf	_keyCount
  2778  0641  1803               	btfsc	3,0
  2779                           
  2780                           ;main.c: 777: return 1;
  2781  0642  3401               	retlw	1
  2782  0643  2E3C               	goto	L5
  2783  0644                     __end_of_keyRead:	
  2784  0644                     __ptext13:	
  2785 ;; *************** function _keyRead2 *****************
  2786 ;; Defined at:
  2787 ;;		line 785 in file "C:\mcuproject\scm\zdt\D257_8F083_tssop20_\D257_8F083_tssop20_\main.c"
  2788 ;; Parameters:    Size  Location     Type
  2789 ;;  keyStatus       1    wreg     unsigned char 
  2790 ;; Auto vars:     Size  Location     Type
  2791 ;;  keyStatus       1    2[COMMON] unsigned char 
  2792 ;; Return value:  Size  Location     Type
  2793 ;;                  1    wreg      unsigned char 
  2794 ;; Registers used:
  2795 ;;		wreg, status,2, status,0
  2796 ;; Tracked objects:
  2797 ;;		On entry : 300/0
  2798 ;;		On exit  : 300/0
  2799 ;;		Unchanged: 0/0
  2800 ;; Data sizes:     COMMON   BANK0   BANK1   BANK2
  2801 ;;      Params:         0       0       0       0
  2802 ;;      Locals:         1       0       0       0
  2803 ;;      Temps:          0       0       0       0
  2804 ;;      Totals:         1       0       0       0
  2805 ;;Total ram usage:        1 bytes
  2806 ;; Hardware stack levels used:    1
  2807 ;; Hardware stack levels required when called:    1
  2808 ;; This function calls:
  2809 ;;		Nothing
  2810 ;; This function is called by:
  2811 ;;		_keyCtr
  2812 ;; This function uses a non-reentrant model
  2813 ;;
  2814                           
  2815                           
  2816                           ;psect for function _keyRead2
  2817  0644                     _keyRead2:	
  2818                           
  2819                           ;incstack = 0
  2820                           ; Regs used in _keyRead2: [wreg+status,2+status,0]
  2821                           ;keyRead2@keyStatus stored from wreg
  2822  0644  00F2               	movwf	keyRead2@keyStatus
  2823                           
  2824                           ;main.c: 787: if(keyStatus)
  2825  0645  0872               	movf	keyRead2@keyStatus,w
  2826  0646  1903               	btfsc	3,2
  2827  0647  2E50               	goto	l3643
  2828  0648  3078               	movlw	120
  2829                           
  2830                           ;main.c: 788: {
  2831                           ;main.c: 789: keyCount2++;
  2832  0649  0AD7               	incf	_keyCount2,f
  2833                           
  2834                           ;main.c: 790: if(keyCount2 >= 120)
  2835  064A  0257               	subwf	_keyCount2,w
  2836  064B  1C03               	skipc
  2837  064C  3400               	retlw	0
  2838                           
  2839                           ;main.c: 791: {
  2840                           ;main.c: 792: keyCount2 = 120;
  2841  064D  3078               	movlw	120
  2842  064E  00D7               	movwf	_keyCount2
  2843  064F  3400               	retlw	0
  2844  0650                     l3643:	
  2845                           
  2846                           ;main.c: 795: else
  2847                           ;main.c: 796: {
  2848                           ;main.c: 797: if(keyCount2 >= 5)
  2849  0650  3005               	movlw	5
  2850  0651  0257               	subwf	_keyCount2,w
  2851                           
  2852                           ;main.c: 798: {
  2853                           ;main.c: 799: keyCount2 = 0;
  2854  0652  01D7               	clrf	_keyCount2
  2855  0653  1803               	btfsc	3,0
  2856                           
  2857                           ;main.c: 800: return 1;
  2858  0654  3401               	retlw	1
  2859  0655  3400               	retlw	0
  2860  0656                     __end_of_keyRead2:	
  2861                           ;main.c: 803: }
  2862                           ;main.c: 804: return 0;
  2863                           
  2864                           ;main.c: 801: }
  2865                           ;main.c: 802: keyCount2 = 0;
  2866                           
  2867  0656                     __ptext12:	
  2868 ;; *************** function _keyRead3 *****************
  2869 ;; Defined at:
  2870 ;;		line 807 in file "C:\mcuproject\scm\zdt\D257_8F083_tssop20_\D257_8F083_tssop20_\main.c"
  2871 ;; Parameters:    Size  Location     Type
  2872 ;;  keyStatus       1    wreg     unsigned char 
  2873 ;; Auto vars:     Size  Location     Type
  2874 ;;  keyStatus       1    2[COMMON] unsigned char 
  2875 ;; Return value:  Size  Location     Type
  2876 ;;                  1    wreg      unsigned char 
  2877 ;; Registers used:
  2878 ;;		wreg, status,2, status,0
  2879 ;; Tracked objects:
  2880 ;;		On entry : 300/100
  2881 ;;		On exit  : 300/0
  2882 ;;		Unchanged: 0/0
  2883 ;; Data sizes:     COMMON   BANK0   BANK1   BANK2
  2884 ;;      Params:         0       0       0       0
  2885 ;;      Locals:         1       0       0       0
  2886 ;;      Temps:          0       0       0       0
  2887 ;;      Totals:         1       0       0       0
  2888 ;;Total ram usage:        1 bytes
  2889 ;; Hardware stack levels used:    1
  2890 ;; Hardware stack levels required when called:    1
  2891 ;; This function calls:
  2892 ;;		Nothing
  2893 ;; This function is called by:
  2894 ;;		_keyCtr
  2895 ;; This function uses a non-reentrant model
  2896 ;;
  2897                           
  2898                           
  2899                           ;psect for function _keyRead3
  2900  0656                     _keyRead3:	
  2901                           
  2902                           ;incstack = 0
  2903                           ; Regs used in _keyRead3: [wreg+status,2+status,0]
  2904                           ;keyRead3@keyStatus stored from wreg
  2905  0656  00F2               	movwf	keyRead3@keyStatus
  2906                           
  2907                           ;main.c: 809: if(keyStatus)
  2908  0657  0872               	movf	keyRead3@keyStatus,w
  2909  0658  1903               	btfsc	3,2
  2910  0659  2E63               	goto	l3665
  2911                           
  2912                           ;main.c: 810: {
  2913                           ;main.c: 811: keyCount3++;
  2914  065A  1283               	bcf	3,5	;RP0=0, select bank0
  2915  065B  3078               	movlw	120
  2916  065C  0AD6               	incf	_keyCount3,f
  2917                           
  2918                           ;main.c: 812: if(keyCount3 >= 120)
  2919  065D  0256               	subwf	_keyCount3,w
  2920  065E  1C03               	skipc
  2921  065F  3400               	retlw	0
  2922                           
  2923                           ;main.c: 813: {
  2924                           ;main.c: 814: keyCount3 = 120;
  2925  0660  3078               	movlw	120
  2926  0661  00D6               	movwf	_keyCount3
  2927  0662  3400               	retlw	0
  2928  0663                     l3665:	
  2929                           
  2930                           ;main.c: 817: else
  2931                           ;main.c: 818: {
  2932                           ;main.c: 819: if(keyCount3 >= 5)
  2933  0663  3005               	movlw	5
  2934  0664  1283               	bcf	3,5	;RP0=0, select bank0
  2935  0665  0256               	subwf	_keyCount3,w
  2936                           
  2937                           ;main.c: 820: {
  2938                           ;main.c: 821: keyCount3 = 0;
  2939  0666  01D6               	clrf	_keyCount3
  2940  0667  1803               	btfsc	3,0
  2941                           
  2942                           ;main.c: 822: return 1;
  2943  0668  3401               	retlw	1
  2944  0669  3400               	retlw	0
  2945  066A                     __end_of_keyRead3:	
  2946                           ;main.c: 825: }
  2947                           ;main.c: 826: return 0;
  2948                           
  2949                           ;main.c: 823: }
  2950                           ;main.c: 824: keyCount3 = 0;
  2951                           
  2952  066A                     __ptext11:	
  2953 ;; *************** function _keyRead4 *****************
  2954 ;; Defined at:
  2955 ;;		line 829 in file "C:\mcuproject\scm\zdt\D257_8F083_tssop20_\D257_8F083_tssop20_\main.c"
  2956 ;; Parameters:    Size  Location     Type
  2957 ;;  keyStatus       1    wreg     unsigned char 
  2958 ;; Auto vars:     Size  Location     Type
  2959 ;;  keyStatus       1    2[COMMON] unsigned char 
  2960 ;; Return value:  Size  Location     Type
  2961 ;;                  1    wreg      unsigned char 
  2962 ;; Registers used:
  2963 ;;		wreg, status,2, status,0
  2964 ;; Tracked objects:
  2965 ;;		On entry : 300/100
  2966 ;;		On exit  : 300/0
  2967 ;;		Unchanged: 0/0
  2968 ;; Data sizes:     COMMON   BANK0   BANK1   BANK2
  2969 ;;      Params:         0       0       0       0
  2970 ;;      Locals:         1       0       0       0
  2971 ;;      Temps:          0       0       0       0
  2972 ;;      Totals:         1       0       0       0
  2973 ;;Total ram usage:        1 bytes
  2974 ;; Hardware stack levels used:    1
  2975 ;; Hardware stack levels required when called:    1
  2976 ;; This function calls:
  2977 ;;		Nothing
  2978 ;; This function is called by:
  2979 ;;		_keyCtr
  2980 ;; This function uses a non-reentrant model
  2981 ;;
  2982                           
  2983                           
  2984                           ;psect for function _keyRead4
  2985  066A                     _keyRead4:	
  2986                           
  2987                           ;incstack = 0
  2988                           ; Regs used in _keyRead4: [wreg+status,2+status,0]
  2989                           ;keyRead4@keyStatus stored from wreg
  2990  066A  00F2               	movwf	keyRead4@keyStatus
  2991                           
  2992                           ;main.c: 831: if(keyStatus)
  2993  066B  0872               	movf	keyRead4@keyStatus,w
  2994  066C  1903               	btfsc	3,2
  2995  066D  2E77               	goto	l3687
  2996                           
  2997                           ;main.c: 832: {
  2998                           ;main.c: 833: keyCount4++;
  2999  066E  1283               	bcf	3,5	;RP0=0, select bank0
  3000  066F  3078               	movlw	120
  3001  0670  0AD5               	incf	_keyCount4,f
  3002                           
  3003                           ;main.c: 834: if(keyCount4 >= 120)
  3004  0671  0255               	subwf	_keyCount4,w
  3005  0672  1C03               	skipc
  3006  0673  3400               	retlw	0
  3007                           
  3008                           ;main.c: 835: {
  3009                           ;main.c: 836: keyCount4 = 120;
  3010  0674  3078               	movlw	120
  3011  0675  00D5               	movwf	_keyCount4
  3012  0676  3400               	retlw	0
  3013  0677                     l3687:	
  3014                           
  3015                           ;main.c: 839: else
  3016                           ;main.c: 840: {
  3017                           ;main.c: 841: if(keyCount4 >= 5)
  3018  0677  3005               	movlw	5
  3019  0678  1283               	bcf	3,5	;RP0=0, select bank0
  3020  0679  0255               	subwf	_keyCount4,w
  3021                           
  3022                           ;main.c: 842: {
  3023                           ;main.c: 843: keyCount4 = 0;
  3024  067A  01D5               	clrf	_keyCount4
  3025  067B  1803               	btfsc	3,0
  3026                           
  3027                           ;main.c: 844: return 1;
  3028  067C  3401               	retlw	1
  3029  067D  3400               	retlw	0
  3030  067E                     __end_of_keyRead4:	
  3031                           ;main.c: 847: }
  3032                           ;main.c: 848: return 0;
  3033                           
  3034                           ;main.c: 845: }
  3035                           ;main.c: 846: keyCount4 = 0;
  3036                           
  3037  067E                     PL10:	
  3038  067E  1283               	bcf	3,5	;RP0=0, select bank0
  3039  067F  0085               	movwf	5	;volatile
  3040  0680  3080               	movlw	128
  3041  0681  0088               	movwf	8	;volatile
  3042  0682  1683               	bsf	3,5	;RP0=1, select bank1
  3043  0683  0008               	return
  3044  0684                     __end_ofPL10:	
  3045  0684                     PL12:	
  3046  0684  30C8               	movlw	200
  3047  0685  01C3               	clrf	_showWorkFlag
  3048  0686  0AC3               	incf	_showWorkFlag,f
  3049  0687  00C2               	movwf	_shanshuoTime
  3050  0688  0008               	return
  3051  0689                     __end_ofPL12:	
  3052                           
  3053                           	psect	text17
  3054  001B                     __ptext17:	
  3055 ;; *************** function _checkOutA *****************
  3056 ;; Defined at:
  3057 ;;		line 362 in file "C:\mcuproject\scm\zdt\D257_8F083_tssop20_\D257_8F083_tssop20_\main.c"
  3058 ;; Parameters:    Size  Location     Type
  3059 ;;		None
  3060 ;; Auto vars:     Size  Location     Type
  3061 ;;		None
  3062 ;; Return value:  Size  Location     Type
  3063 ;;                  1    wreg      void 
  3064 ;; Registers used:
  3065 ;;		wreg, status,2, status,0, pclath, cstack
  3066 ;; Tracked objects:
  3067 ;;		On entry : 0/0
  3068 ;;		On exit  : 300/0
  3069 ;;		Unchanged: 0/0
  3070 ;; Data sizes:     COMMON   BANK0   BANK1   BANK2
  3071 ;;      Params:         0       0       0       0
  3072 ;;      Locals:         0       0       0       0
  3073 ;;      Temps:          0       0       0       0
  3074 ;;      Totals:         0       0       0       0
  3075 ;;Total ram usage:        0 bytes
  3076 ;; Hardware stack levels used:    1
  3077 ;; Hardware stack levels required when called:    2
  3078 ;; This function calls:
  3079 ;;		_ADC_Sample
  3080 ;;		_pwm2Stop
  3081 ;; This function is called by:
  3082 ;;		_main
  3083 ;; This function uses a non-reentrant model
  3084 ;;
  3085                           
  3086                           
  3087                           ;psect for function _checkOutA
  3088  001B                     _checkOutA:	
  3089                           
  3090                           ;main.c: 365: test_adc = ADC_Sample(5, 5);
  3091                           
  3092                           ;incstack = 0
  3093                           ; Regs used in _checkOutA: [wreg+status,2+status,0+pclath+cstack]
  3094  001B  3005               	movlw	5
  3095  001C  00F2               	movwf	ADC_Sample@adldo
  3096  001D  20E9  118A         	fcall	_ADC_Sample
  3097  001F  00BB               	movwf	_test_adc	;volatile
  3098                           
  3099                           ;main.c: 366: if (0xA5 == test_adc)
  3100  0020  30A5               	movlw	165
  3101  0021  063B               	xorwf	_test_adc,w	;volatile
  3102  0022  1D03               	btfss	3,2
  3103  0023  0008               	return
  3104                           
  3105                           ;main.c: 367: {
  3106                           ;main.c: 368: chrgAD = adresult;
  3107  0024  0825               	movf	_adresult+1,w	;volatile
  3108  0025  00AD               	movwf	_chrgAD+1
  3109  0026  0824               	movf	_adresult,w	;volatile
  3110  0027  00AC               	movwf	_chrgAD
  3111                           
  3112                           ;main.c: 369: if(chrgFlag && chrgAD > 100)
  3113  0028  085B               	movf	_chrgFlag,w
  3114  0029  1903               	btfsc	3,2
  3115  002A  0008               	return
  3116  002B  3000               	movlw	0
  3117  002C  022D               	subwf	_chrgAD+1,w
  3118  002D  3065               	movlw	101
  3119  002E  1903               	skipnz
  3120  002F  022C               	subwf	_chrgAD,w
  3121  0030  1C03               	skipc
  3122  0031  0008               	return
  3123                           
  3124                           ;main.c: 370: {
  3125                           ;main.c: 371: pwm2Stop();
  3126  0032  22CD               	fcall	_pwm2Stop
  3127                           
  3128                           ;main.c: 372: PORTB &= 0xF7;
  3129  0033  1186               	bcf	6,3	;volatile
  3130                           
  3131                           ;main.c: 373: protectFlag = 1;
  3132  0034  01C6               	clrf	_protectFlag
  3133  0035  0AC6               	incf	_protectFlag,f
  3134                           
  3135                           ;main.c: 374: PWMD4L = 0;
  3136  0036  019B               	clrf	27	;volatile
  3137                           
  3138                           ;main.c: 375: maxduty = 0;
  3139  0037  01D1               	clrf	_maxduty
  3140  0038  0008               	return
  3141  0039                     __end_of_checkOutA:	
  3142  0039                     __ptext18:	
  3143 ;; *************** function _checkBatAD *****************
  3144 ;; Defined at:
  3145 ;;		line 381 in file "C:\mcuproject\scm\zdt\D257_8F083_tssop20_\D257_8F083_tssop20_\main.c"
  3146 ;; Parameters:    Size  Location     Type
  3147 ;;		None
  3148 ;; Auto vars:     Size  Location     Type
  3149 ;;		None
  3150 ;; Return value:  Size  Location     Type
  3151 ;;                  1    wreg      void 
  3152 ;; Registers used:
  3153 ;;		wreg, status,2, status,0, pclath, cstack
  3154 ;; Tracked objects:
  3155 ;;		On entry : 300/0
  3156 ;;		On exit  : 300/0
  3157 ;;		Unchanged: 0/0
  3158 ;; Data sizes:     COMMON   BANK0   BANK1   BANK2
  3159 ;;      Params:         0       0       0       0
  3160 ;;      Locals:         0       0       0       0
  3161 ;;      Temps:          2       0       0       0
  3162 ;;      Totals:         2       0       0       0
  3163 ;;Total ram usage:        2 bytes
  3164 ;; Hardware stack levels used:    1
  3165 ;; Hardware stack levels required when called:    2
  3166 ;; This function calls:
  3167 ;;		_ADC_Sample
  3168 ;;		_pwm1Stop
  3169 ;;		_pwm2Stop
  3170 ;; This function is called by:
  3171 ;;		_main
  3172 ;; This function uses a non-reentrant model
  3173 ;;
  3174                           
  3175                           
  3176                           ;psect for function _checkBatAD
  3177  0039                     _checkBatAD:	
  3178                           
  3179                           ;main.c: 384: test_adc = ADC_Sample(13, 5);
  3180                           
  3181                           ;incstack = 0
  3182                           ; Regs used in _checkBatAD: [wreg+status,2+status,0+pclath+cstack]
  3183  0039  3005               	movlw	5
  3184  003A  00F2               	movwf	ADC_Sample@adldo
  3185  003B  300D               	movlw	13
  3186  003C  20E9  118A         	fcall	_ADC_Sample
  3187  003E  00BB               	movwf	_test_adc	;volatile
  3188                           
  3189                           ;main.c: 385: if (0xA5 == test_adc)
  3190  003F  30A5               	movlw	165
  3191  0040  063B               	xorwf	_test_adc,w	;volatile
  3192  0041  1D03               	btfss	3,2
  3193  0042  28B7               	goto	l3889
  3194                           
  3195                           ;main.c: 386: {
  3196                           ;main.c: 387: tempData = adresult;
  3197  0043  0825               	movf	_adresult+1,w	;volatile
  3198  0044  00B1               	movwf	_tempData+1
  3199  0045  0824               	movf	_adresult,w	;volatile
  3200  0046  00B0               	movwf	_tempData
  3201                           
  3202                           ;main.c: 388: if(chrgFlag && tempData > 1676)
  3203  0047  085B               	movf	_chrgFlag,w
  3204  0048  1903               	btfsc	3,2
  3205  0049  2857               	goto	l3855
  3206  004A  3006               	movlw	6
  3207  004B  0231               	subwf	_tempData+1,w
  3208  004C  308D               	movlw	141
  3209  004D  1903               	skipnz
  3210  004E  0230               	subwf	_tempData,w
  3211  004F  1C03               	skipc
  3212  0050  2857               	goto	l3855
  3213                           
  3214                           ;main.c: 389: {
  3215                           ;main.c: 390: pwm2Stop();
  3216  0051  22CD  118A         	fcall	_pwm2Stop
  3217                           
  3218                           ;main.c: 391: protectFlag = 1;
  3219  0053  01C6               	clrf	_protectFlag
  3220  0054  0AC6               	incf	_protectFlag,f
  3221                           
  3222                           ;main.c: 392: PWMD4L = 0;
  3223  0055  019B               	clrf	27	;volatile
  3224                           
  3225                           ;main.c: 393: maxduty = 0;
  3226  0056  01D1               	clrf	_maxduty
  3227  0057                     l3855:	
  3228                           
  3229                           ;main.c: 394: }
  3230                           ;main.c: 395: if(tempData < 1118)
  3231  0057  3004               	movlw	4
  3232  0058  0231               	subwf	_tempData+1,w
  3233  0059  305E               	movlw	94
  3234  005A  1903               	skipnz
  3235  005B  0230               	subwf	_tempData,w
  3236  005C  1803               	skipnc
  3237  005D  2880               	goto	l3873
  3238  005E  3004               	movlw	4
  3239                           
  3240                           ;main.c: 396: {
  3241                           ;main.c: 397: batValue = 0;
  3242  005F  01D4               	clrf	_batValue
  3243                           
  3244                           ;main.c: 399: if(tempData < 1080 && workStep > 0)
  3245  0060  0231               	subwf	_tempData+1,w
  3246  0061  3038               	movlw	56
  3247  0062  1903               	skipnz
  3248  0063  0230               	subwf	_tempData,w
  3249  0064  1803               	skipnc
  3250  0065  287D               	goto	l3871
  3251  0066  087A               	movf	_workStep,w
  3252  0067  1903               	btfsc	3,2
  3253  0068  287D               	goto	l3871
  3254                           
  3255                           ;main.c: 400: {
  3256                           ;main.c: 401: if(++closeCount >= 1000)
  3257  0069  0AB2               	incf	_closeCount,f
  3258  006A  1903               	skipnz
  3259  006B  0AB3               	incf	_closeCount+1,f
  3260  006C  3003               	movlw	3
  3261  006D  0233               	subwf	_closeCount+1,w
  3262  006E  30E8               	movlw	232
  3263  006F  1903               	skipnz
  3264  0070  0232               	subwf	_closeCount,w
  3265  0071  1C03               	skipc
  3266  0072  28B7               	goto	l3889
  3267                           
  3268                           ;main.c: 402: {
  3269                           ;main.c: 403: closeCount = 0;
  3270  0073  01B2               	clrf	_closeCount
  3271  0074  01B3               	clrf	_closeCount+1
  3272                           
  3273                           ;main.c: 404: preBatValue = 0;
  3274  0075  01D2               	clrf	_preBatValue
  3275                           
  3276                           ;main.c: 405: workStep = 0;
  3277  0076  01FA               	clrf	_workStep
  3278                           
  3279                           ;main.c: 406: pwm1Stop();
  3280  0077  118A  23B0  118A   	fcall	_pwm1Stop
  3281                           
  3282                           ;main.c: 407: lowBatFlag = 1;
  3283  007A  01BD               	clrf	_lowBatFlag
  3284  007B  0ABD               	incf	_lowBatFlag,f
  3285  007C  28B7               	goto	l3889
  3286  007D                     l3871:	
  3287                           
  3288                           ;main.c: 410: else
  3289                           ;main.c: 411: {
  3290                           ;main.c: 412: closeCount = 0;
  3291  007D  01B2               	clrf	_closeCount
  3292  007E  01B3               	clrf	_closeCount+1
  3293  007F  28B7               	goto	l3889
  3294  0080                     l3873:	
  3295  0080  3005               	movlw	5
  3296                           
  3297                           ;main.c: 415: else
  3298                           ;main.c: 416: {
  3299                           ;main.c: 417: closeCount = 0;
  3300  0081  01B2               	clrf	_closeCount
  3301  0082  01B3               	clrf	_closeCount+1
  3302                           
  3303                           ;main.c: 418: if(tempData >= 1460)
  3304  0083  0231               	subwf	_tempData+1,w
  3305  0084  30B4               	movlw	180
  3306  0085  1903               	skipnz
  3307  0086  0230               	subwf	_tempData,w
  3308  0087  1C03               	skipc
  3309  0088  2890               	goto	l3879
  3310                           
  3311                           ;main.c: 419: {
  3312                           ;main.c: 421: batValue = ((tempData - 1460) /2) + 46;
  3313  0089  0830               	movf	_tempData,w
  3314  008A  3E4C               	addlw	76
  3315  008B  22F3  118A         	fcall	PL6	;call to abstracted procedure
  3316  008D  0877               	movf	??_checkBatAD,w
  3317  008E  3E2E               	addlw	46
  3318  008F  28B0               	goto	L10
  3319  0090                     l3879:	
  3320                           ;main.c: 422: }
  3321                           
  3322                           
  3323                           ;main.c: 423: else if(tempData >= 1340)
  3324  0090  3005               	movlw	5
  3325  0091  0231               	subwf	_tempData+1,w
  3326  0092  303C               	movlw	60
  3327  0093  1903               	skipnz
  3328  0094  0230               	subwf	_tempData,w
  3329                           
  3330                           ;main.c: 424: {
  3331                           ;main.c: 426: batValue = ((tempData - 1340) /4) + 16;
  3332  0095  0830               	movf	_tempData,w
  3333  0096  1C03               	skipc
  3334  0097  28A1               	goto	L11
  3335  0098  3EC4               	addlw	196
  3336  0099  22F3  118A         	fcall	PL6	;call to abstracted procedure
  3337  009B  1003               	clrc
  3338  009C  0CF8               	rrf	??_checkBatAD+1,f
  3339  009D  0CF7               	rrf	??_checkBatAD,f
  3340  009E  0877               	movf	??_checkBatAD,w
  3341  009F  3E10               	addlw	16
  3342  00A0  28B0               	goto	L10
  3343  00A1                     L11:	
  3344                           ;main.c: 428: else
  3345                           ;main.c: 429: {
  3346                           ;main.c: 430: batValue = (tempData - 1118) / 16;
  3347                           
  3348                           ;main.c: 427: }
  3349                           
  3350  00A1  3EA2               	addlw	162
  3351  00A2  00F7               	movwf	??_checkBatAD
  3352  00A3  0831               	movf	_tempData+1,w
  3353  00A4  1803               	skipnc
  3354  00A5  3E01               	addlw	1
  3355  00A6  3EFB               	addlw	251
  3356  00A7  00F8               	movwf	??_checkBatAD+1
  3357  00A8  3004               	movlw	4
  3358  00A9                     u2095:	
  3359  00A9  1003               	clrc
  3360  00AA  0CF8               	rrf	??_checkBatAD+1,f
  3361  00AB  0CF7               	rrf	??_checkBatAD,f
  3362  00AC  3EFF               	addlw	-1
  3363  00AD  1D03               	skipz
  3364  00AE  28A9               	goto	u2095
  3365  00AF  0877               	movf	??_checkBatAD,w
  3366  00B0                     L10:	
  3367  00B0  00D4               	movwf	_batValue
  3368                           
  3369                           ;main.c: 431: }
  3370                           ;main.c: 432: if(batValue > 99)
  3371  00B1  3064               	movlw	100
  3372  00B2  0254               	subwf	_batValue,w
  3373  00B3  1C03               	skipc
  3374  00B4  28B7               	goto	l3889
  3375                           
  3376                           ;main.c: 433: batValue = 99;
  3377  00B5  3063               	movlw	99
  3378  00B6  00D4               	movwf	_batValue
  3379  00B7                     l3889:	
  3380                           
  3381                           ;main.c: 435: }
  3382                           ;main.c: 437: }
  3383                           ;main.c: 438: test_adc = ADC_Sample(14, 5);
  3384  00B7  3005               	movlw	5
  3385  00B8  00F2               	movwf	ADC_Sample@adldo
  3386  00B9  300E               	movlw	14
  3387  00BA  20E9  118A         	fcall	_ADC_Sample
  3388  00BC  00BB               	movwf	_test_adc	;volatile
  3389                           
  3390                           ;main.c: 439: if (0xA5 == test_adc)
  3391  00BD  30A5               	movlw	165
  3392  00BE  063B               	xorwf	_test_adc,w	;volatile
  3393  00BF  1D03               	btfss	3,2
  3394  00C0  0008               	return
  3395                           
  3396                           ;main.c: 440: {
  3397                           ;main.c: 441: if(adresult > 100)
  3398  00C1  3000               	movlw	0
  3399  00C2  0225               	subwf	_adresult+1,w	;volatile
  3400  00C3  3065               	movlw	101
  3401  00C4  1903               	skipnz
  3402  00C5  0224               	subwf	_adresult,w	;volatile
  3403  00C6  1C03               	skipc
  3404  00C7  0008               	return
  3405                           
  3406                           ;main.c: 442: {
  3407                           ;main.c: 443: if(adresult > 800 || (tempData - adresult) > 800)
  3408  00C8  3003               	movlw	3
  3409  00C9  0225               	subwf	_adresult+1,w	;volatile
  3410  00CA  3021               	movlw	33
  3411  00CB  1903               	skipnz
  3412  00CC  0224               	subwf	_adresult,w	;volatile
  3413  00CD  1803               	skipnc
  3414  00CE  28DE               	goto	l3899
  3415  00CF  0824               	movf	_adresult,w	;volatile
  3416  00D0  0230               	subwf	_tempData,w
  3417  00D1  00F7               	movwf	??_checkBatAD
  3418  00D2  0825               	movf	_adresult+1,w	;volatile
  3419  00D3  1C03               	skipc
  3420  00D4  0A25               	incf	_adresult+1,w	;volatile
  3421  00D5  0231               	subwf	_tempData+1,w
  3422  00D6  00F8               	movwf	??_checkBatAD+1
  3423  00D7  3003               	movlw	3
  3424  00D8  0278               	subwf	??_checkBatAD+1,w
  3425  00D9  3021               	movlw	33
  3426  00DA  1903               	skipnz
  3427  00DB  0277               	subwf	??_checkBatAD,w
  3428  00DC  1C03               	skipc
  3429  00DD  28E7               	goto	l3905
  3430  00DE                     l3899:	
  3431                           
  3432                           ;main.c: 444: {
  3433                           ;main.c: 446: if(++countHalfFull > 200)
  3434  00DE  30C9               	movlw	201
  3435  00DF  0ACC               	incf	_countHalfFull,f
  3436  00E0  024C               	subwf	_countHalfFull,w
  3437  00E1  1C03               	skipc
  3438  00E2  0008               	return
  3439  00E3  3002               	movlw	2
  3440                           
  3441                           ;main.c: 447: {
  3442                           ;main.c: 448: countHalfFull = 0;
  3443  00E4  01CC               	clrf	_countHalfFull
  3444                           
  3445                           ;main.c: 449: protectFlag = 2;
  3446  00E5  00C6               	movwf	_protectFlag
  3447  00E6  0008               	return
  3448  00E7                     l3905:	
  3449                           
  3450                           ;main.c: 452: else
  3451                           ;main.c: 453: {
  3452                           ;main.c: 454: countHalfFull = 0;
  3453  00E7  01CC               	clrf	_countHalfFull
  3454  00E8  0008               	return
  3455  00E9                     __end_of_checkBatAD:	
  3456  00E9                     __ptext21:	
  3457 ;; *************** function _ADC_Sample *****************
  3458 ;; Defined at:
  3459 ;;		line 290 in file "C:\mcuproject\scm\zdt\D257_8F083_tssop20_\D257_8F083_tssop20_\main.c"
  3460 ;; Parameters:    Size  Location     Type
  3461 ;;  adch            1    wreg     unsigned char 
  3462 ;;  adldo           1    2[COMMON] unsigned char 
  3463 ;; Auto vars:     Size  Location     Type
  3464 ;;  adch            1    1[BANK0 ] unsigned char 
  3465 ;;  j               1    0[BANK0 ] unsigned char 
  3466 ;;  adsum           4    3[BANK0 ] volatile unsigned long 
  3467 ;;  ad_temp         2   11[BANK0 ] volatile unsigned int 
  3468 ;;  admax           2    9[BANK0 ] volatile unsigned int 
  3469 ;;  admin           2    7[BANK0 ] volatile unsigned int 
  3470 ;;  i               1    2[BANK0 ] unsigned char 
  3471 ;; Return value:  Size  Location     Type
  3472 ;;                  1    wreg      unsigned char 
  3473 ;; Registers used:
  3474 ;;		wreg, status,2, status,0
  3475 ;; Tracked objects:
  3476 ;;		On entry : 0/0
  3477 ;;		On exit  : 300/0
  3478 ;;		Unchanged: 0/0
  3479 ;; Data sizes:     COMMON   BANK0   BANK1   BANK2
  3480 ;;      Params:         1       0       0       0
  3481 ;;      Locals:         0      13       0       0
  3482 ;;      Temps:          4       0       0       0
  3483 ;;      Totals:         5      13       0       0
  3484 ;;Total ram usage:       18 bytes
  3485 ;; Hardware stack levels used:    1
  3486 ;; Hardware stack levels required when called:    1
  3487 ;; This function calls:
  3488 ;;		Nothing
  3489 ;; This function is called by:
  3490 ;;		_checkOutA
  3491 ;;		_checkBatAD
  3492 ;; This function uses a non-reentrant model
  3493 ;;
  3494                           
  3495                           
  3496                           ;psect for function _ADC_Sample
  3497  00E9                     _ADC_Sample:	
  3498                           
  3499                           ;incstack = 0
  3500                           ; Regs used in _ADC_Sample: [wreg+status,2+status,0]
  3501                           ;ADC_Sample@adch stored from wreg
  3502  00E9  1283               	bcf	3,5	;RP0=0, select bank0
  3503  00EA  1303               	bcf	3,6	;RP1=0, select bank0
  3504  00EB  00DE               	movwf	ADC_Sample@adch
  3505                           
  3506                           ;main.c: 292: volatile unsigned long adsum = 0;
  3507                           
  3508                           ;main.c: 293: volatile unsigned int admin = 0, admax = 0;
  3509  00EC  22FD  118A         	fcall	PL8	;call to abstracted procedure
  3510                           
  3511                           ;main.c: 294: volatile unsigned int ad_temp = 0;
  3512  00EE  01E8               	clrf	ADC_Sample@ad_temp	;volatile
  3513  00EF  01E9               	clrf	ADC_Sample@ad_temp+1	;volatile
  3514                           
  3515                           ;main.c: 296: if ((!LDO_EN) && (adldo & 0x04) )
  3516  00F0  1683               	bsf	3,5	;RP0=1, select bank1
  3517  00F1  1D16               	btfss	22,2	;volatile
  3518  00F2  1D72               	btfss	ADC_Sample@adldo,2
  3519  00F3  28FC               	goto	l3489
  3520                           
  3521                           ;main.c: 297: {
  3522                           ;main.c: 299: ADCON1 = adldo;
  3523  00F4  0872               	movf	ADC_Sample@adldo,w
  3524  00F5  0096               	movwf	22	;volatile
  3525                           
  3526                           ;main.c: 300: _delay((unsigned long)((100)*(8000000/4000000.0)));
  3527  00F6  3042               	movlw	66
  3528  00F7  00F3               	movwf	??_ADC_Sample
  3529  00F8                     u3727:	
  3530  00F8  0BF3               	decfsz	??_ADC_Sample,f
  3531  00F9  28F8               	goto	u3727
  3532  00FA  0000               	nop
  3533                           
  3534                           ;main.c: 301: }
  3535  00FB  28FE               	goto	l3491
  3536  00FC                     l3489:	
  3537                           
  3538                           ;main.c: 302: else
  3539                           ;main.c: 303: ADCON1 = adldo;
  3540  00FC  0872               	movf	ADC_Sample@adldo,w
  3541  00FD  0096               	movwf	22	;volatile
  3542  00FE                     l3491:	
  3543                           
  3544                           ;main.c: 305: if(adch & 0x10)
  3545  00FE  1283               	bcf	3,5	;RP0=0, select bank0
  3546  00FF  1303               	bcf	3,6	;RP1=0, select bank0
  3547  0100  1E5E               	btfss	ADC_Sample@adch,4
  3548  0101  2907               	goto	l3499
  3549                           
  3550                           ;main.c: 306: {
  3551                           ;main.c: 307: CHS4 = 1;
  3552  0102  1683               	bsf	3,5	;RP0=1, select bank1
  3553  0103  1716               	bsf	22,6	;volatile
  3554                           
  3555                           ;main.c: 308: adch &= 0x0f;
  3556  0104  300F               	movlw	15
  3557  0105  1283               	bcf	3,5	;RP0=0, select bank0
  3558  0106  05DE               	andwf	ADC_Sample@adch,f
  3559  0107                     l3499:	
  3560                           
  3561                           ;main.c: 311: for (i = 0; i < 10; i++)
  3562  0107  01DF               	clrf	ADC_Sample@i
  3563  0108                     l3505:	
  3564                           
  3565                           ;main.c: 312: {
  3566                           ;main.c: 313: ADCON0 = (unsigned char)(0X41 | (adch << 2));
  3567  0108  085E               	movf	ADC_Sample@adch,w
  3568  0109  00F3               	movwf	??_ADC_Sample
  3569  010A  3001               	movlw	1
  3570  010B  1003               	clrc
  3571  010C                     L12:	
  3572  010C  0DF3               	rlf	??_ADC_Sample,f
  3573  010D  3EFF               	addlw	-1
  3574  010E  1003               	clrc
  3575  010F  1D03               	skipz
  3576  0110  290C               	goto	L12
  3577  0111  0D73               	rlf	??_ADC_Sample,w
  3578  0112  3841               	iorlw	65
  3579  0113  1683               	bsf	3,5	;RP0=1, select bank1
  3580  0114  0095               	movwf	21	;volatile
  3581  0115  0000               	nop	;# 
  3582  0116  0000               	nop	;# 
  3583  0117  0000               	nop	;# 
  3584  0118  0000               	nop	;# 
  3585                           
  3586                           ;main.c: 318: GODONE = 1;
  3587  0119  1683               	bsf	3,5	;RP0=1, select bank1
  3588  011A  1303               	bcf	3,6	;RP1=0, select bank1
  3589  011B  1495               	bsf	21,1	;volatile
  3590                           
  3591                           ;main.c: 320: unsigned char j = 0;
  3592  011C  1283               	bcf	3,5	;RP0=0, select bank0
  3593  011D  01DD               	clrf	ADC_Sample@j
  3594  011E                     l1011:	
  3595                           ;main.c: 321: while (GODONE)
  3596                           
  3597  011E  1683               	bsf	3,5	;RP0=1, select bank1
  3598  011F  1C95               	btfss	21,1	;volatile
  3599  0120  2928               	goto	l3515
  3600                           
  3601                           ;main.c: 322: {
  3602                           ;main.c: 323: _delay((unsigned long)((2)*(8000000/4000000.0)));
  3603  0121  2922               	nop2	;2 cycle nop
  3604  0122  2923               	nop2	;2 cycle nop
  3605                           
  3606                           ;main.c: 325: if (0 == (--j))
  3607  0123  1283               	bcf	3,5	;RP0=0, select bank0
  3608  0124  1303               	bcf	3,6	;RP1=0, select bank0
  3609  0125  0BDD               	decfsz	ADC_Sample@j,f
  3610  0126  291E               	goto	l1011
  3611                           
  3612                           ;main.c: 326: return 0;
  3613  0127  3400               	retlw	0
  3614  0128                     l3515:	
  3615                           
  3616                           ;main.c: 327: }
  3617                           ;main.c: 329: ad_temp = (unsigned int)((ADRESH << 4) + (ADRESL >> 4));
  3618  0128  0819               	movf	25,w	;volatile
  3619  0129  1283               	bcf	3,5	;RP0=0, select bank0
  3620  012A  00E8               	movwf	ADC_Sample@ad_temp	;volatile
  3621  012B  01E9               	clrf	ADC_Sample@ad_temp+1	;volatile
  3622  012C  0EE8               	swapf	ADC_Sample@ad_temp,f	;volatile
  3623  012D  0EE9               	swapf	ADC_Sample@ad_temp+1,f	;volatile
  3624  012E  30F0               	movlw	240
  3625  012F  05E9               	andwf	ADC_Sample@ad_temp+1,f	;volatile
  3626  0130  0868               	movf	ADC_Sample@ad_temp,w	;volatile
  3627  0131  390F               	andlw	15
  3628  0132  04E9               	iorwf	ADC_Sample@ad_temp+1,f	;volatile
  3629  0133  30F0               	movlw	240
  3630  0134  05E8               	andwf	ADC_Sample@ad_temp,f	;volatile
  3631  0135  1683               	bsf	3,5	;RP0=1, select bank1
  3632  0136  0E18               	swapf	24,w	;volatile
  3633  0137  390F               	andlw	15
  3634  0138  1283               	bcf	3,5	;RP0=0, select bank0
  3635  0139  07E8               	addwf	ADC_Sample@ad_temp,f	;volatile
  3636  013A  1803               	skipnc
  3637  013B  0AE9               	incf	ADC_Sample@ad_temp+1,f	;volatile
  3638                           
  3639                           ;main.c: 331: if (0 == admax)
  3640  013C  0866               	movf	ADC_Sample@admax,w	;volatile
  3641  013D  0467               	iorwf	ADC_Sample@admax+1,w	;volatile
  3642  013E  1D03               	btfss	3,2
  3643  013F  2943               	goto	l3523
  3644                           
  3645                           ;main.c: 332: {
  3646                           ;main.c: 333: admax = ad_temp;
  3647  0140  2306  118A         	fcall	PL14	;call to abstracted procedure
  3648  0142  2956               	goto	l3529
  3649  0143                     l3523:	
  3650                           ;main.c: 335: }
  3651                           
  3652                           ;main.c: 334: admin = ad_temp;
  3653                           
  3654                           
  3655                           ;main.c: 336: else if (ad_temp > admax)
  3656  0143  0869               	movf	ADC_Sample@ad_temp+1,w	;volatile
  3657  0144  0267               	subwf	ADC_Sample@admax+1,w	;volatile
  3658  0145  1D03               	skipz
  3659  0146  2949               	goto	u1605
  3660  0147  0868               	movf	ADC_Sample@ad_temp,w	;volatile
  3661  0148  0266               	subwf	ADC_Sample@admax,w	;volatile
  3662  0149                     u1605:	
  3663  0149  1803               	skipnc
  3664  014A  294E               	goto	l3527
  3665                           
  3666                           ;main.c: 337: admax = ad_temp;
  3667  014B  2306  118A         	fcall	PL14	;call to abstracted procedure
  3668  014D  295A               	goto	l1017
  3669  014E                     l3527:	
  3670                           
  3671                           ;main.c: 338: else if (ad_temp < admin)
  3672  014E  0865               	movf	ADC_Sample@admin+1,w	;volatile
  3673  014F  0269               	subwf	ADC_Sample@ad_temp+1,w	;volatile
  3674  0150  1D03               	skipz
  3675  0151  2954               	goto	u1615
  3676  0152  0864               	movf	ADC_Sample@admin,w	;volatile
  3677  0153  0268               	subwf	ADC_Sample@ad_temp,w	;volatile
  3678  0154                     u1615:	
  3679  0154  1803               	skipnc
  3680  0155  295A               	goto	l1017
  3681  0156                     l3529:	
  3682                           
  3683                           ;main.c: 339: admin = ad_temp;
  3684  0156  0869               	movf	ADC_Sample@ad_temp+1,w	;volatile
  3685  0157  00E5               	movwf	ADC_Sample@admin+1	;volatile
  3686  0158  0868               	movf	ADC_Sample@ad_temp,w	;volatile
  3687  0159  00E4               	movwf	ADC_Sample@admin	;volatile
  3688  015A                     l1017:	
  3689                           
  3690                           ;main.c: 341: adsum += ad_temp;
  3691  015A  0868               	movf	ADC_Sample@ad_temp,w	;volatile
  3692  015B  00F3               	movwf	??_ADC_Sample
  3693  015C  0869               	movf	ADC_Sample@ad_temp+1,w	;volatile
  3694  015D  00F4               	movwf	??_ADC_Sample+1
  3695  015E  01F5               	clrf	??_ADC_Sample+2
  3696  015F  01F6               	clrf	??_ADC_Sample+3
  3697  0160  0873               	movf	??_ADC_Sample,w
  3698  0161  07E0               	addwf	ADC_Sample@adsum,f	;volatile
  3699  0162  0874               	movf	??_ADC_Sample+1,w
  3700  0163  1103               	clrz
  3701  0164  1803               	skipnc
  3702  0165  3E01               	addlw	1
  3703  0166  1D03               	btfss	3,2
  3704  0167  07E1               	addwf	ADC_Sample@adsum+1,f	;volatile
  3705  0168  0875               	movf	??_ADC_Sample+2,w
  3706  0169  1103               	clrz
  3707  016A  1803               	skipnc
  3708  016B  3E01               	addlw	1
  3709  016C  1D03               	btfss	3,2
  3710  016D  07E2               	addwf	ADC_Sample@adsum+2,f	;volatile
  3711  016E  0876               	movf	??_ADC_Sample+3,w
  3712  016F  1103               	clrz
  3713  0170  1803               	skipnc
  3714  0171  3E01               	addlw	1
  3715  0172  1D03               	btfss	3,2
  3716  0173  07E3               	addwf	ADC_Sample@adsum+3,f	;volatile
  3717  0174  300A               	movlw	10
  3718  0175  0ADF               	incf	ADC_Sample@i,f
  3719  0176  025F               	subwf	ADC_Sample@i,w
  3720  0177  1C03               	skipc
  3721  0178  2908               	goto	l3505
  3722                           
  3723                           ;main.c: 342: }
  3724                           ;main.c: 343: adsum -= admax;
  3725  0179  0866               	movf	ADC_Sample@admax,w	;volatile
  3726  017A  00F3               	movwf	??_ADC_Sample
  3727  017B  0867               	movf	ADC_Sample@admax+1,w	;volatile
  3728  017C  22E4  118A         	fcall	PL4	;call to abstracted procedure
  3729  017E  1C03               	skipc
  3730  017F  0F76               	incfsz	??_ADC_Sample+3,w
  3731  0180  02E3               	subwf	ADC_Sample@adsum+3,f	;volatile
  3732                           
  3733                           ;main.c: 344: if (adsum >= admin)
  3734  0181  0864               	movf	ADC_Sample@admin,w	;volatile
  3735  0182  00F3               	movwf	??_ADC_Sample
  3736  0183  0865               	movf	ADC_Sample@admin+1,w	;volatile
  3737  0184  00F4               	movwf	??_ADC_Sample+1
  3738  0185  01F5               	clrf	??_ADC_Sample+2
  3739  0186  01F6               	clrf	??_ADC_Sample+3
  3740  0187  0876               	movf	??_ADC_Sample+3,w
  3741  0188  0263               	subwf	ADC_Sample@adsum+3,w	;volatile
  3742  0189  1D03               	skipz
  3743  018A  2995               	goto	u1655
  3744  018B  0875               	movf	??_ADC_Sample+2,w
  3745  018C  0262               	subwf	ADC_Sample@adsum+2,w	;volatile
  3746  018D  1D03               	skipz
  3747  018E  2995               	goto	u1655
  3748  018F  0874               	movf	??_ADC_Sample+1,w
  3749  0190  0261               	subwf	ADC_Sample@adsum+1,w	;volatile
  3750  0191  1D03               	skipz
  3751  0192  2995               	goto	u1655
  3752  0193  0873               	movf	??_ADC_Sample,w
  3753  0194  0260               	subwf	ADC_Sample@adsum,w	;volatile
  3754  0195                     u1655:	
  3755  0195  1C03               	skipc
  3756  0196  29A0               	goto	l1021
  3757                           
  3758                           ;main.c: 345: adsum -= admin;
  3759  0197  0864               	movf	ADC_Sample@admin,w	;volatile
  3760  0198  00F3               	movwf	??_ADC_Sample
  3761  0199  0865               	movf	ADC_Sample@admin+1,w	;volatile
  3762  019A  22E4  118A         	fcall	PL4	;call to abstracted procedure
  3763  019C  1C03               	skipc
  3764  019D  0F76               	incfsz	??_ADC_Sample+3,w
  3765  019E  02E3               	subwf	ADC_Sample@adsum+3,f	;volatile
  3766  019F  29A4               	goto	l3539
  3767  01A0                     l1021:	
  3768                           
  3769                           ;main.c: 346: else
  3770                           ;main.c: 347: adsum = 0;
  3771  01A0  01E0               	clrf	ADC_Sample@adsum	;volatile
  3772  01A1  01E1               	clrf	ADC_Sample@adsum+1	;volatile
  3773  01A2  01E2               	clrf	ADC_Sample@adsum+2	;volatile
  3774  01A3  01E3               	clrf	ADC_Sample@adsum+3	;volatile
  3775  01A4                     l3539:	
  3776                           
  3777                           ;main.c: 349: adresult = adsum >> 3;
  3778  01A4  0860               	movf	ADC_Sample@adsum,w	;volatile
  3779  01A5  00F3               	movwf	??_ADC_Sample
  3780  01A6  0861               	movf	ADC_Sample@adsum+1,w	;volatile
  3781  01A7  00F4               	movwf	??_ADC_Sample+1
  3782  01A8  0862               	movf	ADC_Sample@adsum+2,w	;volatile
  3783  01A9  00F5               	movwf	??_ADC_Sample+2
  3784  01AA  0863               	movf	ADC_Sample@adsum+3,w	;volatile
  3785  01AB  00F6               	movwf	??_ADC_Sample+3
  3786  01AC  3003               	movlw	3
  3787  01AD                     u1675:	
  3788  01AD  1003               	clrc
  3789  01AE  0CF6               	rrf	??_ADC_Sample+3,f
  3790  01AF  0CF5               	rrf	??_ADC_Sample+2,f
  3791  01B0  0CF4               	rrf	??_ADC_Sample+1,f
  3792  01B1  0CF3               	rrf	??_ADC_Sample,f
  3793  01B2  3EFF               	addlw	-1
  3794  01B3  1D03               	skipz
  3795  01B4  29AD               	goto	u1675
  3796  01B5  0874               	movf	??_ADC_Sample+1,w
  3797  01B6  00A5               	movwf	_adresult+1	;volatile
  3798  01B7  0873               	movf	??_ADC_Sample,w
  3799  01B8  00A4               	movwf	_adresult	;volatile
  3800                           
  3801                           ;main.c: 351: adsum = 0;
  3802                           
  3803                           ;main.c: 352: admin = 0;
  3804                           
  3805                           ;main.c: 353: admax = 0;
  3806  01B9  22FD               	fcall	PL8	;call to abstracted procedure
  3807                           
  3808                           ;main.c: 354: return 0xA5;
  3809  01BA  34A5               	retlw	165
  3810  01BB                     __end_of_ADC_Sample:	
  3811  01BB                     __ptext15:	
  3812 ;; *************** function _chrgCtr *****************
  3813 ;; Defined at:
  3814 ;;		line 508 in file "C:\mcuproject\scm\zdt\D257_8F083_tssop20_\D257_8F083_tssop20_\main.c"
  3815 ;; Parameters:    Size  Location     Type
  3816 ;;		None
  3817 ;; Auto vars:     Size  Location     Type
  3818 ;;  waitMaxTime     2    5[COMMON] unsigned int 
  3819 ;; Return value:  Size  Location     Type
  3820 ;;                  1    wreg      void 
  3821 ;; Registers used:
  3822 ;;		wreg, status,2, status,0, pclath, cstack
  3823 ;; Tracked objects:
  3824 ;;		On entry : 300/0
  3825 ;;		On exit  : 300/0
  3826 ;;		Unchanged: 0/0
  3827 ;; Data sizes:     COMMON   BANK0   BANK1   BANK2
  3828 ;;      Params:         0       0       0       0
  3829 ;;      Locals:         2       0       0       0
  3830 ;;      Temps:          3       0       0       0
  3831 ;;      Totals:         5       0       0       0
  3832 ;;Total ram usage:        5 bytes
  3833 ;; Hardware stack levels used:    1
  3834 ;; Hardware stack levels required when called:    2
  3835 ;; This function calls:
  3836 ;;		_pwm1Stop
  3837 ;;		_pwm2Init
  3838 ;;		_pwm2Stop
  3839 ;; This function is called by:
  3840 ;;		_main
  3841 ;; This function uses a non-reentrant model
  3842 ;;
  3843                           
  3844                           
  3845                           ;psect for function _chrgCtr
  3846  01BB                     _chrgCtr:	
  3847                           
  3848                           ;main.c: 510: if(0x02 & PORTA)
  3849                           
  3850                           ;incstack = 0
  3851                           ; Regs used in _chrgCtr: [wreg+status,2+status,0+pclath+cstack]
  3852  01BB  1683               	bsf	3,5	;RP0=1, select bank1
  3853  01BC  1C86               	btfss	6,1	;volatile
  3854  01BD  2A87               	goto	l4023
  3855                           
  3856                           ;main.c: 511: {
  3857                           ;main.c: 513: chrgFlag = 1;
  3858  01BE  1283               	bcf	3,5	;RP0=0, select bank0
  3859  01BF  01DB               	clrf	_chrgFlag
  3860  01C0  0ADB               	incf	_chrgFlag,f
  3861                           
  3862                           ;main.c: 514: workStep = 0;
  3863  01C1  01FA               	clrf	_workStep
  3864                           
  3865                           ;main.c: 516: ledLightTime = 0;
  3866  01C2  01BD               	clrf	_lowBatFlag
  3867                           
  3868                           ;main.c: 517: pwm1Stop();
  3869  01C3  118A  23B0  118A   	fcall	_pwm1Stop
  3870                           
  3871                           ;main.c: 518: if(protectFlag)
  3872  01C6  0846               	movf	_protectFlag,w
  3873  01C7  1903               	btfsc	3,2
  3874  01C8  29D8               	goto	l3929
  3875                           
  3876                           ;main.c: 519: {
  3877                           ;main.c: 520: pwm2Stop();
  3878  01C9  22CD  118A         	fcall	_pwm2Stop
  3879                           
  3880                           ;main.c: 521: maxduty = 0;
  3881  01CB  01D1               	clrf	_maxduty
  3882                           
  3883                           ;main.c: 522: if(protectFlag == 1 && tempData < 1530)
  3884  01CC  0B46               	decfsz	_protectFlag,w
  3885  01CD  0008               	return
  3886  01CE  3005               	movlw	5
  3887  01CF  0231               	subwf	_tempData+1,w
  3888  01D0  30FA               	movlw	250
  3889  01D1  1903               	skipnz
  3890  01D2  0230               	subwf	_tempData,w
  3891  01D3  1803               	skipnc
  3892  01D4  0008               	return
  3893                           
  3894                           ;main.c: 523: {
  3895                           ;main.c: 524: protectFlag = 0;
  3896  01D5  01C6               	clrf	_protectFlag
  3897                           
  3898                           ;main.c: 525: chrgFullFlag = 0;
  3899  01D6  01D0               	clrf	_chrgFullFlag
  3900  01D7  0008               	return
  3901  01D8                     l3929:	
  3902                           
  3903                           ;main.c: 528: }
  3904                           ;main.c: 529: if(tempData < 1118)
  3905  01D8  3004               	movlw	4
  3906  01D9  0231               	subwf	_tempData+1,w
  3907  01DA  305E               	movlw	94
  3908  01DB  1903               	skipnz
  3909  01DC  0230               	subwf	_tempData,w
  3910  01DD  1803               	skipnc
  3911  01DE  29E1               	goto	l3935
  3912  01DF  3005               	movlw	5
  3913  01E0  29E9               	goto	L9
  3914  01E1                     l3935:	
  3915                           ;main.c: 534: }
  3916                           
  3917                           ;main.c: 533: chrgMaxAD = 5;
  3918                           
  3919                           ;main.c: 532: lockCount = 0;
  3920                           
  3921                           ;main.c: 530: {
  3922                           ;main.c: 531: chrgMode = 0;
  3923                           
  3924                           
  3925                           ;main.c: 535: else if(tempData < 1230)
  3926  01E1  3004               	movlw	4
  3927  01E2  0231               	subwf	_tempData+1,w
  3928  01E3  30CE               	movlw	206
  3929  01E4  1903               	skipnz
  3930  01E5  0230               	subwf	_tempData,w
  3931  01E6  1803               	skipnc
  3932  01E7  29EC               	goto	l3941
  3933  01E8  3021               	movlw	33
  3934  01E9                     L9:	
  3935                           
  3936                           ;main.c: 536: {
  3937                           ;main.c: 537: chrgMode = 0;
  3938  01E9  01CA               	clrf	_chrgMode
  3939                           
  3940                           ;main.c: 538: lockCount = 0;
  3941  01EA  01C8               	clrf	_lockCount
  3942                           
  3943                           ;main.c: 539: chrgMaxAD = 33;
  3944  01EB  2A0C               	goto	L8
  3945  01EC                     l3941:	
  3946                           ;main.c: 540: }
  3947                           
  3948                           
  3949                           ;main.c: 541: else if(tempData < 1530)
  3950  01EC  3005               	movlw	5
  3951  01ED  0231               	subwf	_tempData+1,w
  3952  01EE  30FA               	movlw	250
  3953  01EF  1903               	skipnz
  3954  01F0  0230               	subwf	_tempData,w
  3955  01F1  1803               	skipnc
  3956  01F2  2A01               	goto	l3955
  3957  01F3  3026               	movlw	38
  3958                           
  3959                           ;main.c: 542: {
  3960                           ;main.c: 543: chrgMode = 1;
  3961  01F4  01CA               	clrf	_chrgMode
  3962  01F5  0ACA               	incf	_chrgMode,f
  3963                           
  3964                           ;main.c: 544: chrgMaxAD = 38;
  3965  01F6  00C7               	movwf	_chrgMaxAD
  3966  01F7  30C9               	movlw	201
  3967                           
  3968                           ;main.c: 545: lockCount = 0;
  3969  01F8  01C8               	clrf	_lockCount
  3970                           
  3971                           ;main.c: 546: if(++chrgBatCount > 200)
  3972  01F9  0AC9               	incf	_chrgBatCount,f
  3973  01FA  0249               	subwf	_chrgBatCount,w
  3974  01FB  1C03               	skipc
  3975  01FC  2A0D               	goto	l3965
  3976                           
  3977                           ;main.c: 547: {
  3978                           ;main.c: 548: chrgBatCount = 200;
  3979  01FD  30C8               	movlw	200
  3980  01FE  00C9               	movwf	_chrgBatCount
  3981                           
  3982                           ;main.c: 549: chrgFullFlag = 0;
  3983  01FF  01D0               	clrf	_chrgFullFlag
  3984  0200  2A0D               	goto	l3965
  3985  0201                     l3955:	
  3986                           
  3987                           ;main.c: 554: {
  3988                           ;main.c: 556: if(++lockCount > 200)
  3989  0201  30C9               	movlw	201
  3990  0202  0AC8               	incf	_lockCount,f
  3991  0203  0248               	subwf	_lockCount,w
  3992  0204  1C03               	skipc
  3993  0205  2A0B               	goto	l3963
  3994                           
  3995                           ;main.c: 557: {
  3996                           ;main.c: 558: lockCount = 200;
  3997  0206  30C8               	movlw	200
  3998  0207  00C8               	movwf	_lockCount
  3999  0208  3002               	movlw	2
  4000                           
  4001                           ;main.c: 559: chrgBatCount = 0;
  4002  0209  01C9               	clrf	_chrgBatCount
  4003                           
  4004                           ;main.c: 560: chrgMode = 2;
  4005  020A  00CA               	movwf	_chrgMode
  4006  020B                     l3963:	
  4007                           
  4008                           ;main.c: 561: }
  4009                           ;main.c: 562: chrgMaxAD = 38;
  4010  020B  3026               	movlw	38
  4011  020C                     L8:	
  4012  020C  00C7               	movwf	_chrgMaxAD
  4013  020D                     l3965:	
  4014                           
  4015                           ;main.c: 563: }
  4016                           ;main.c: 564: if(chrgMode == 2 && chrgAD < 7)
  4017  020D  3002               	movlw	2
  4018  020E  064A               	xorwf	_chrgMode,w
  4019  020F  1D03               	btfss	3,2
  4020  0210  2A28               	goto	l3975
  4021  0211  3000               	movlw	0
  4022  0212  022D               	subwf	_chrgAD+1,w
  4023  0213  3007               	movlw	7
  4024  0214  1903               	skipnz
  4025  0215  022C               	subwf	_chrgAD,w
  4026  0216  1803               	skipnc
  4027  0217  2A28               	goto	l3975
  4028                           
  4029                           ;main.c: 565: {
  4030                           ;main.c: 566: if(++fullCount >= 250)
  4031  0218  0AAE               	incf	_fullCount,f
  4032  0219  1903               	skipnz
  4033  021A  0AAF               	incf	_fullCount+1,f
  4034  021B  3000               	movlw	0
  4035  021C  022F               	subwf	_fullCount+1,w
  4036  021D  30FA               	movlw	250
  4037  021E  1903               	skipnz
  4038  021F  022E               	subwf	_fullCount,w
  4039  0220  1C03               	skipc
  4040  0221  2A2A               	goto	l3977
  4041                           
  4042                           ;main.c: 567: {
  4043                           ;main.c: 568: fullCount = 250;
  4044  0222  30FA               	movlw	250
  4045  0223  00AE               	movwf	_fullCount
  4046  0224  01AF               	clrf	_fullCount+1
  4047                           
  4048                           ;main.c: 569: chrgFullFlag = 1;
  4049  0225  01D0               	clrf	_chrgFullFlag
  4050  0226  0AD0               	incf	_chrgFullFlag,f
  4051  0227  2A2A               	goto	l3977
  4052  0228                     l3975:	
  4053                           
  4054                           ;main.c: 572: else
  4055                           ;main.c: 573: {
  4056                           ;main.c: 574: fullCount = 0;
  4057  0228  01AE               	clrf	_fullCount
  4058  0229  01AF               	clrf	_fullCount+1
  4059  022A                     l3977:	
  4060                           
  4061                           ;main.c: 575: }
  4062                           ;main.c: 577: if(chrgFullFlag)
  4063  022A  0850               	movf	_chrgFullFlag,w
  4064  022B  1903               	btfsc	3,2
  4065  022C  2A32               	goto	l3983
  4066                           
  4067                           ;main.c: 578: {
  4068                           ;main.c: 579: pwm2Stop();
  4069  022D  22CD  118A         	fcall	_pwm2Stop
  4070                           
  4071                           ;main.c: 580: chrgFullFlag = 1;
  4072  022F  01D0               	clrf	_chrgFullFlag
  4073  0230  0AD0               	incf	_chrgFullFlag,f
  4074                           
  4075                           ;main.c: 581: }
  4076  0231  2A85               	goto	l4021
  4077  0232                     l3983:	
  4078                           
  4079                           ;main.c: 582: else
  4080                           ;main.c: 583: {
  4081                           ;main.c: 586: if(tempData > 1555 || chrgAD >chrgMaxAD)
  4082  0232  3006               	movlw	6
  4083  0233  0231               	subwf	_tempData+1,w
  4084  0234  3014               	movlw	20
  4085  0235  1903               	skipnz
  4086  0236  0230               	subwf	_tempData,w
  4087  0237  1803               	skipnc
  4088  0238  2A44               	goto	l3987
  4089  0239  0847               	movf	_chrgMaxAD,w
  4090  023A  00F2               	movwf	??_chrgCtr
  4091  023B  01F3               	clrf	??_chrgCtr+1
  4092  023C  082D               	movf	_chrgAD+1,w
  4093  023D  0273               	subwf	??_chrgCtr+1,w
  4094  023E  1D03               	skipz
  4095  023F  2A42               	goto	u2305
  4096  0240  082C               	movf	_chrgAD,w
  4097  0241  0272               	subwf	??_chrgCtr,w
  4098  0242                     u2305:	
  4099  0242  1803               	skipnc
  4100  0243  2A50               	goto	l3997
  4101  0244                     l3987:	
  4102                           
  4103                           ;main.c: 587: {
  4104                           ;main.c: 588: if(++subTime > chrgWaitTime)
  4105  0244  0ACF               	incf	_subTime,f
  4106  0245  084F               	movf	_subTime,w
  4107  0246  024D               	subwf	_chrgWaitTime,w
  4108  0247  1803               	skipnc
  4109  0248  2A4E               	goto	l3995
  4110                           
  4111                           ;main.c: 589: {
  4112                           ;main.c: 590: maxduty = maxduty - 1;
  4113  0249  30FF               	movlw	255
  4114  024A  07D1               	addwf	_maxduty,f
  4115  024B  3028               	movlw	40
  4116                           
  4117                           ;main.c: 591: subTime = 0;
  4118  024C  01CF               	clrf	_subTime
  4119                           
  4120                           ;main.c: 592: chrgWaitTime = 40;
  4121  024D  00CD               	movwf	_chrgWaitTime
  4122  024E                     l3995:	
  4123                           
  4124                           ;main.c: 593: }
  4125                           ;main.c: 594: addTime = 0;
  4126  024E  01CE               	clrf	_addTime
  4127                           
  4128                           ;main.c: 595: }
  4129  024F  2A77               	goto	l4011
  4130  0250                     l3997:	
  4131                           
  4132                           ;main.c: 596: else if(tempData < 1555 && chrgAD <chrgMaxAD)
  4133  0250  3006               	movlw	6
  4134  0251  0231               	subwf	_tempData+1,w
  4135  0252  3013               	movlw	19
  4136  0253  1903               	skipnz
  4137  0254  0230               	subwf	_tempData,w
  4138  0255  1803               	skipnc
  4139  0256  2A77               	goto	l4011
  4140  0257  0847               	movf	_chrgMaxAD,w
  4141  0258  00F2               	movwf	??_chrgCtr
  4142  0259  01F3               	clrf	??_chrgCtr+1
  4143  025A  0873               	movf	??_chrgCtr+1,w
  4144  025B  022D               	subwf	_chrgAD+1,w
  4145  025C  1D03               	skipz
  4146  025D  2A60               	goto	u2335
  4147  025E  0872               	movf	??_chrgCtr,w
  4148  025F  022C               	subwf	_chrgAD,w
  4149  0260                     u2335:	
  4150  0260  1803               	skipnc
  4151  0261  2A77               	goto	l4011
  4152                           
  4153                           ;main.c: 597: {
  4154                           ;main.c: 598: if(++addTime > chrgWaitTime)
  4155  0262  0ACE               	incf	_addTime,f
  4156  0263  084E               	movf	_addTime,w
  4157  0264  024D               	subwf	_chrgWaitTime,w
  4158  0265  1803               	skipnc
  4159  0266  2A76               	goto	l4009
  4160                           
  4161                           ;main.c: 599: {
  4162                           ;main.c: 600: if(chrgAD < (chrgMaxAD-3))
  4163  0267  0847               	movf	_chrgMaxAD,w
  4164  0268  3EFD               	addlw	253
  4165  0269  00F2               	movwf	??_chrgCtr
  4166  026A  30FF               	movlw	255
  4167  026B  1803               	skipnc
  4168  026C  3000               	movlw	0
  4169  026D  00F3               	movwf	??_chrgCtr+1
  4170  026E  022D               	subwf	_chrgAD+1,w
  4171  026F  1D03               	skipz
  4172  0270  2A73               	goto	u2355
  4173  0271  0872               	movf	??_chrgCtr,w
  4174  0272  022C               	subwf	_chrgAD,w
  4175  0273                     u2355:	
  4176  0273  1C03               	btfss	3,0
  4177                           
  4178                           ;main.c: 601: {
  4179                           ;main.c: 602: maxduty = maxduty + 1;
  4180  0274  0AD1               	incf	_maxduty,f
  4181                           
  4182                           ;main.c: 603: }
  4183                           ;main.c: 604: addTime = 0;
  4184  0275  01CE               	clrf	_addTime
  4185  0276                     l4009:	
  4186                           
  4187                           ;main.c: 605: }
  4188                           ;main.c: 606: subTime = 0;
  4189  0276  01CF               	clrf	_subTime
  4190  0277                     l4011:	
  4191                           
  4192                           ;main.c: 607: }
  4193                           ;main.c: 608: if(maxduty < 1)
  4194  0277  0851               	movf	_maxduty,w
  4195  0278  1D03               	btfss	3,2
  4196  0279  2A7C               	goto	l4015
  4197                           
  4198                           ;main.c: 609: maxduty = 1;
  4199  027A  01D1               	clrf	_maxduty
  4200  027B  0AD1               	incf	_maxduty,f
  4201  027C                     l4015:	
  4202                           
  4203                           ;main.c: 610: if(maxduty > 45)
  4204  027C  302E               	movlw	46
  4205  027D  0251               	subwf	_maxduty,w
  4206  027E  1C03               	skipc
  4207  027F  2A82               	goto	l1093
  4208                           
  4209                           ;main.c: 611: maxduty = 45;
  4210  0280  302D               	movlw	45
  4211  0281  00D1               	movwf	_maxduty
  4212  0282                     l1093:	
  4213                           
  4214                           ;main.c: 612: PWMD4L = maxduty;
  4215  0282  0851               	movf	_maxduty,w
  4216  0283  009B               	movwf	27	;volatile
  4217                           
  4218                           ;main.c: 613: pwm2Init();
  4219  0284  22D4               	fcall	_pwm2Init
  4220  0285                     l4021:	
  4221                           
  4222                           ;main.c: 618: }
  4223                           ;main.c: 619: chrgCloseTime = 0;
  4224  0285  01BC               	clrf	_chrgCloseTime
  4225                           
  4226                           ;main.c: 620: }
  4227  0286  0008               	return
  4228  0287                     l4023:	
  4229                           
  4230                           ;main.c: 621: else
  4231                           ;main.c: 622: {
  4232                           ;main.c: 623: if(++chrgCloseTime > 10)
  4233  0287  300B               	movlw	11
  4234  0288  1283               	bcf	3,5	;RP0=0, select bank0
  4235  0289  0ABC               	incf	_chrgCloseTime,f
  4236  028A  023C               	subwf	_chrgCloseTime,w
  4237  028B  1C03               	skipc
  4238  028C  2A96               	goto	l4037
  4239  028D  3014               	movlw	20
  4240                           
  4241                           ;main.c: 624: {
  4242                           ;main.c: 625: chrgCloseTime = 0;
  4243  028E  01BC               	clrf	_chrgCloseTime
  4244                           
  4245                           ;main.c: 626: protectFlag = 0;
  4246  028F  01C6               	clrf	_protectFlag
  4247                           
  4248                           ;main.c: 627: chrgWaitTime = 20;
  4249  0290  00CD               	movwf	_chrgWaitTime
  4250                           
  4251                           ;main.c: 628: chrgFullFlag = 0;
  4252  0291  01D0               	clrf	_chrgFullFlag
  4253                           
  4254                           ;main.c: 629: maxduty = 0;
  4255  0292  01D1               	clrf	_maxduty
  4256                           
  4257                           ;main.c: 630: pwm2Stop();
  4258  0293  22CD  118A         	fcall	_pwm2Stop
  4259                           
  4260                           ;main.c: 631: chrgFlag = 0;
  4261  0295  01DB               	clrf	_chrgFlag
  4262  0296                     l4037:	
  4263                           
  4264                           ;main.c: 632: }
  4265                           ;main.c: 635: if(workStep > 0 && preBatValue > (batValue + 1))
  4266  0296  087A               	movf	_workStep,w
  4267  0297  1903               	btfsc	3,2
  4268  0298  2AC8               	goto	l4051
  4269  0299  0854               	movf	_batValue,w
  4270  029A  3E01               	addlw	1
  4271  029B  00F2               	movwf	??_chrgCtr
  4272  029C  3000               	movlw	0
  4273  029D  1803               	skipnc
  4274  029E  3001               	movlw	1
  4275  029F  00F3               	movwf	??_chrgCtr+1
  4276  02A0  3A80               	xorlw	128
  4277  02A1  00F4               	movwf	??_chrgCtr+2
  4278  02A2  3080               	movlw	128
  4279  02A3  0274               	subwf	??_chrgCtr+2,w
  4280  02A4  1D03               	skipz
  4281  02A5  2AA8               	goto	u2405
  4282  02A6  0852               	movf	_preBatValue,w
  4283  02A7  0272               	subwf	??_chrgCtr,w
  4284  02A8                     u2405:	
  4285  02A8  1803               	skipnc
  4286  02A9  2AC8               	goto	l4051
  4287                           
  4288                           ;main.c: 636: {
  4289                           ;main.c: 637: unsigned int waitMaxTime = 2000;
  4290  02AA  30D0               	movlw	208
  4291  02AB  00F5               	movwf	chrgCtr@waitMaxTime
  4292  02AC  3007               	movlw	7
  4293  02AD  00F6               	movwf	chrgCtr@waitMaxTime+1
  4294                           
  4295                           ;main.c: 638: if(preBatValue > 74)
  4296  02AE  304B               	movlw	75
  4297  02AF  1283               	bcf	3,5	;RP0=0, select bank0
  4298  02B0  1303               	bcf	3,6	;RP1=0, select bank0
  4299  02B1  0252               	subwf	_preBatValue,w
  4300  02B2  1C03               	skipc
  4301  02B3  2AB8               	goto	l4045
  4302                           
  4303                           ;main.c: 639: {
  4304                           ;main.c: 640: waitMaxTime = 3000;
  4305  02B4  30B8               	movlw	184
  4306  02B5  00F5               	movwf	chrgCtr@waitMaxTime
  4307  02B6  300B               	movlw	11
  4308  02B7  00F6               	movwf	chrgCtr@waitMaxTime+1
  4309  02B8                     l4045:	
  4310                           
  4311                           ;main.c: 641: }
  4312                           ;main.c: 642: if(++count20s > waitMaxTime)
  4313  02B8  0AA6               	incf	_count20s,f
  4314  02B9  1903               	skipnz
  4315  02BA  0AA7               	incf	_count20s+1,f
  4316  02BB  0827               	movf	_count20s+1,w
  4317  02BC  0276               	subwf	chrgCtr@waitMaxTime+1,w
  4318  02BD  1D03               	skipz
  4319  02BE  2AC1               	goto	u2425
  4320  02BF  0826               	movf	_count20s,w
  4321  02C0  0275               	subwf	chrgCtr@waitMaxTime,w
  4322  02C1                     u2425:	
  4323  02C1  1803               	skipnc
  4324  02C2  0008               	return
  4325  02C3  30FF               	movlw	255
  4326                           
  4327                           ;main.c: 643: {
  4328                           ;main.c: 644: count20s = 0;
  4329  02C4  01A6               	clrf	_count20s
  4330  02C5  01A7               	clrf	_count20s+1
  4331                           
  4332                           ;main.c: 645: preBatValue = preBatValue - 1;
  4333  02C6  07D2               	addwf	_preBatValue,f
  4334  02C7  0008               	return
  4335  02C8                     l4051:	
  4336                           
  4337                           ;main.c: 648: else
  4338                           ;main.c: 649: {
  4339                           ;main.c: 650: count20s = 0;
  4340  02C8  1283               	bcf	3,5	;RP0=0, select bank0
  4341  02C9  1303               	bcf	3,6	;RP1=0, select bank0
  4342  02CA  01A6               	clrf	_count20s
  4343  02CB  01A7               	clrf	_count20s+1
  4344  02CC  0008               	return
  4345  02CD                     __end_of_chrgCtr:	
  4346  02CD                     __ptext19:	
  4347 ;; *************** function _pwm2Stop *****************
  4348 ;; Defined at:
  4349 ;;		line 499 in file "C:\mcuproject\scm\zdt\D257_8F083_tssop20_\D257_8F083_tssop20_\main.c"
  4350 ;; Parameters:    Size  Location     Type
  4351 ;;		None
  4352 ;; Auto vars:     Size  Location     Type
  4353 ;;		None
  4354 ;; Return value:  Size  Location     Type
  4355 ;;                  1    wreg      void 
  4356 ;; Registers used:
  4357 ;;		status,2
  4358 ;; Tracked objects:
  4359 ;;		On entry : 300/0
  4360 ;;		On exit  : 300/0
  4361 ;;		Unchanged: 0/0
  4362 ;; Data sizes:     COMMON   BANK0   BANK1   BANK2
  4363 ;;      Params:         0       0       0       0
  4364 ;;      Locals:         0       0       0       0
  4365 ;;      Temps:          0       0       0       0
  4366 ;;      Totals:         0       0       0       0
  4367 ;;Total ram usage:        0 bytes
  4368 ;; Hardware stack levels used:    1
  4369 ;; Hardware stack levels required when called:    1
  4370 ;; This function calls:
  4371 ;;		Nothing
  4372 ;; This function is called by:
  4373 ;;		_checkOutA
  4374 ;;		_checkBatAD
  4375 ;;		_chrgCtr
  4376 ;; This function uses a non-reentrant model
  4377 ;;
  4378                           
  4379                           
  4380                           ;psect for function _pwm2Stop
  4381  02CD                     _pwm2Stop:	
  4382                           
  4383                           ;main.c: 501: PWMD4L = 0;
  4384                           
  4385                           ;incstack = 0
  4386                           ; Regs used in _pwm2Stop: [status,2]
  4387  02CD  019B               	clrf	27	;volatile
  4388                           
  4389                           ;main.c: 502: PWMCON0 &= 0xEF;
  4390  02CE  1215               	bcf	21,4	;volatile
  4391                           
  4392                           ;main.c: 503: PORTA &= 0xEF;
  4393  02CF  1683               	bsf	3,5	;RP0=1, select bank1
  4394  02D0  1206               	bcf	6,4	;volatile
  4395                           
  4396                           ;main.c: 504: chrgPWMFlag = 0;
  4397  02D1  1283               	bcf	3,5	;RP0=0, select bank0
  4398  02D2  01BF               	clrf	_chrgPWMFlag
  4399  02D3  0008               	return
  4400  02D4                     __end_of_pwm2Stop:	
  4401  02D4                     __ptext16:	
  4402 ;; *************** function _pwm2Init *****************
  4403 ;; Defined at:
  4404 ;;		line 484 in file "C:\mcuproject\scm\zdt\D257_8F083_tssop20_\D257_8F083_tssop20_\main.c"
  4405 ;; Parameters:    Size  Location     Type
  4406 ;;		None
  4407 ;; Auto vars:     Size  Location     Type
  4408 ;;		None
  4409 ;; Return value:  Size  Location     Type
  4410 ;;                  1    wreg      void 
  4411 ;; Registers used:
  4412 ;;		wreg, status,2, status,0
  4413 ;; Tracked objects:
  4414 ;;		On entry : 300/0
  4415 ;;		On exit  : 300/0
  4416 ;;		Unchanged: 0/0
  4417 ;; Data sizes:     COMMON   BANK0   BANK1   BANK2
  4418 ;;      Params:         0       0       0       0
  4419 ;;      Locals:         0       0       0       0
  4420 ;;      Temps:          0       0       0       0
  4421 ;;      Totals:         0       0       0       0
  4422 ;;Total ram usage:        0 bytes
  4423 ;; Hardware stack levels used:    1
  4424 ;; Hardware stack levels required when called:    1
  4425 ;; This function calls:
  4426 ;;		Nothing
  4427 ;; This function is called by:
  4428 ;;		_chrgCtr
  4429 ;; This function uses a non-reentrant model
  4430 ;;
  4431                           
  4432                           
  4433                           ;psect for function _pwm2Init
  4434  02D4                     _pwm2Init:	
  4435                           
  4436                           ;main.c: 486: if(chrgPWMFlag)
  4437                           
  4438                           ;incstack = 0
  4439                           ; Regs used in _pwm2Init: [wreg+status,2+status,0]
  4440  02D4  083F               	movf	_chrgPWMFlag,w
  4441  02D5  1D03               	btfss	3,2
  4442  02D6  0008               	return
  4443                           
  4444                           ;main.c: 489: }
  4445                           ;main.c: 490: chrgPWMFlag = 1;
  4446  02D7  01BF               	clrf	_chrgPWMFlag
  4447  02D8  0ABF               	incf	_chrgPWMFlag,f
  4448                           
  4449                           ;main.c: 491: PWMTH = 0x00;
  4450  02D9  0198               	clrf	24	;volatile
  4451                           
  4452                           ;main.c: 492: PWMT4L = 70;
  4453  02DA  3046               	movlw	70
  4454  02DB  009C               	movwf	28	;volatile
  4455                           
  4456                           ;main.c: 493: PWMD4L = 5;
  4457  02DC  3005               	movlw	5
  4458  02DD  009B               	movwf	27	;volatile
  4459                           
  4460                           ;main.c: 494: PWMCON1 = 0xC0;
  4461  02DE  30C0               	movlw	192
  4462  02DF  0096               	movwf	22	;volatile
  4463                           
  4464                           ;main.c: 495: PWMCON2 = 0x00;
  4465  02E0  019D               	clrf	29	;volatile
  4466                           
  4467                           ;main.c: 496: PWMCON0 |= 0x30;
  4468  02E1  3030               	movlw	48
  4469  02E2  0495               	iorwf	21,f	;volatile
  4470  02E3  0008               	return
  4471  02E4                     __end_of_pwm2Init:	
  4472  02E4                     PL4:	
  4473  02E4  00F4               	movwf	??_ADC_Sample+1
  4474  02E5  01F5               	clrf	??_ADC_Sample+2
  4475  02E6  01F6               	clrf	??_ADC_Sample+3
  4476  02E7  0873               	movf	??_ADC_Sample,w
  4477  02E8  02E0               	subwf	ADC_Sample@adsum,f	;volatile
  4478  02E9  0874               	movf	??_ADC_Sample+1,w
  4479  02EA  1C03               	skipc
  4480  02EB  0F74               	incfsz	??_ADC_Sample+1,w
  4481  02EC  02E1               	subwf	ADC_Sample@adsum+1,f	;volatile
  4482  02ED  0875               	movf	??_ADC_Sample+2,w
  4483  02EE  1C03               	skipc
  4484  02EF  0F75               	incfsz	??_ADC_Sample+2,w
  4485  02F0  02E2               	subwf	ADC_Sample@adsum+2,f	;volatile
  4486  02F1  0876               	movf	??_ADC_Sample+3,w
  4487  02F2  0008               	return
  4488  02F3                     __end_ofPL4:	
  4489  02F3                     PL6:	
  4490  02F3  00F7               	movwf	??_checkBatAD
  4491  02F4  0831               	movf	_tempData+1,w
  4492  02F5  1803               	skipnc
  4493  02F6  3E01               	addlw	1
  4494  02F7  3EFA               	addlw	250
  4495  02F8  00F8               	movwf	??_checkBatAD+1
  4496  02F9  1003               	clrc
  4497  02FA  0CF8               	rrf	??_checkBatAD+1,f
  4498  02FB  0CF7               	rrf	??_checkBatAD,f
  4499  02FC  0008               	return
  4500  02FD                     __end_ofPL6:	
  4501  02FD                     PL8:	
  4502  02FD  01E0               	clrf	ADC_Sample@adsum	;volatile
  4503  02FE  01E1               	clrf	ADC_Sample@adsum+1	;volatile
  4504  02FF  01E2               	clrf	ADC_Sample@adsum+2	;volatile
  4505  0300  01E3               	clrf	ADC_Sample@adsum+3	;volatile
  4506  0301  01E4               	clrf	ADC_Sample@admin	;volatile
  4507  0302  01E5               	clrf	ADC_Sample@admin+1	;volatile
  4508  0303  01E6               	clrf	ADC_Sample@admax	;volatile
  4509  0304  01E7               	clrf	ADC_Sample@admax+1	;volatile
  4510  0305  0008               	return
  4511  0306                     __end_ofPL8:	
  4512  0306                     PL14:	
  4513  0306  0869               	movf	ADC_Sample@ad_temp+1,w	;volatile
  4514  0307  00E7               	movwf	ADC_Sample@admax+1	;volatile
  4515  0308  0868               	movf	ADC_Sample@ad_temp,w	;volatile
  4516  0309  00E6               	movwf	ADC_Sample@admax	;volatile
  4517  030A  0008               	return
  4518  030B                     __end_ofPL14:	
  4519                           
  4520                           	psect	text22
  4521  0689                     __ptext22:	
  4522 ;; *************** function _Sleep_Mode *****************
  4523 ;; Defined at:
  4524 ;;		line 222 in file "C:\mcuproject\scm\zdt\D257_8F083_tssop20_\D257_8F083_tssop20_\main.c"
  4525 ;; Parameters:    Size  Location     Type
  4526 ;;		None
  4527 ;; Auto vars:     Size  Location     Type
  4528 ;;		None
  4529 ;; Return value:  Size  Location     Type
  4530 ;;                  1    wreg      void 
  4531 ;; Registers used:
  4532 ;;		wreg, status,2, status,0, pclath, cstack
  4533 ;; Tracked objects:
  4534 ;;		On entry : 300/0
  4535 ;;		On exit  : 300/100
  4536 ;;		Unchanged: 0/0
  4537 ;; Data sizes:     COMMON   BANK0   BANK1   BANK2
  4538 ;;      Params:         0       0       0       0
  4539 ;;      Locals:         0       0       0       0
  4540 ;;      Temps:          0       0       0       0
  4541 ;;      Totals:         0       0       0       0
  4542 ;;Total ram usage:        0 bytes
  4543 ;; Hardware stack levels used:    1
  4544 ;; Hardware stack levels required when called:    2
  4545 ;; This function calls:
  4546 ;;		_Init_System
  4547 ;; This function is called by:
  4548 ;;		_main
  4549 ;; This function uses a non-reentrant model
  4550 ;;
  4551                           
  4552                           
  4553                           ;psect for function _Sleep_Mode
  4554  0689                     _Sleep_Mode:	
  4555                           
  4556                           ;main.c: 224: INTCON = 0;
  4557                           
  4558                           ;incstack = 0
  4559                           ; Regs used in _Sleep_Mode: [wreg+status,2+status,0+pclath+cstack]
  4560  0689  018B               	clrf	11	;volatile
  4561                           
  4562                           ;main.c: 226: OPTION_REG = 0;
  4563                           
  4564                           ;main.c: 228: TRISA = 0xE2;
  4565                           
  4566                           ;main.c: 229: PORTA = 0x00;
  4567                           
  4568                           ;main.c: 230: WPUA = 0xC0;
  4569                           
  4570                           ;main.c: 231: TRISB = 0xE0;
  4571                           
  4572                           ;main.c: 232: PORTB = 0;
  4573                           
  4574                           ;main.c: 233: WPUB = 0x80;
  4575                           
  4576                           ;main.c: 234: TRISC = 0x00;
  4577                           
  4578                           ;main.c: 235: PORTC = 0;
  4579  068A  26C5  118A         	fcall	PL2	;call to abstracted procedure
  4580                           
  4581                           ;main.c: 237: ADCON0 = 0;
  4582  068C  1683               	bsf	3,5	;RP0=1, select bank1
  4583  068D  1303               	bcf	3,6	;RP1=0, select bank1
  4584  068E  0195               	clrf	21	;volatile
  4585                           
  4586                           ;main.c: 238: ADCON1 = 0;
  4587  068F  0196               	clrf	22	;volatile
  4588                           
  4589                           ;main.c: 240: PWMCON0 = 0;
  4590  0690  1283               	bcf	3,5	;RP0=0, select bank0
  4591  0691  0195               	clrf	21	;volatile
  4592                           
  4593                           ;main.c: 242: OSCCON = 0X70;
  4594  0692  3070               	movlw	112
  4595  0693  0094               	movwf	20	;volatile
  4596                           
  4597                           ;main.c: 243: T2CON = 0;
  4598  0694  0193               	clrf	19	;volatile
  4599                           
  4600                           ;main.c: 244: IOCA = 0B00000010;
  4601  0695  3002               	movlw	2
  4602  0696  1683               	bsf	3,5	;RP0=1, select bank1
  4603  0697  0089               	movwf	9	;volatile
  4604                           
  4605                           ;main.c: 245: IOCB = 0B10000000;
  4606  0698  3080               	movlw	128
  4607  0699  1283               	bcf	3,5	;RP0=0, select bank0
  4608  069A  0089               	movwf	9	;volatile
  4609                           
  4610                           ;main.c: 247: RAIE = 1;
  4611  069B  158E               	bsf	14,3	;volatile
  4612                           
  4613                           ;main.c: 248: RBIE = 1;
  4614  069C  158B               	bsf	11,3	;volatile
  4615                           
  4616                           ;main.c: 249: PEIE = 1;
  4617  069D  170B               	bsf	11,6	;volatile
  4618                           
  4619                           ;main.c: 251: GIE = 0;
  4620  069E  138B               	bcf	11,7	;volatile
  4621                           
  4622                           ;main.c: 254: PORTA;
  4623  069F  1683               	bsf	3,5	;RP0=1, select bank1
  4624  06A0  0806               	movf	6,w	;volatile
  4625                           
  4626                           ;main.c: 255: RAIF = 0;
  4627  06A1  1283               	bcf	3,5	;RP0=0, select bank0
  4628  06A2  118D               	bcf	13,3	;volatile
  4629                           
  4630                           ;main.c: 256: RBIF = 0;
  4631  06A3  100B               	bcf	11,0	;volatile
  4632                           
  4633                           ;main.c: 257: PORTB;
  4634  06A4  0806               	movf	6,w	;volatile
  4635  06A5  0064               	clrwdt	;# 
  4636  06A6  0063               	sleep	;# 
  4637  06A7  0000               	nop	;# 
  4638  06A8  0064               	clrwdt	;# 
  4639                           
  4640                           ;main.c: 265: if(RAIF) RAIF = 0;
  4641  06A9  1283               	bcf	3,5	;RP0=0, select bank0
  4642  06AA  1303               	bcf	3,6	;RP1=0, select bank0
  4643  06AB  198D               	btfsc	13,3	;volatile
  4644  06AC  118D               	bcf	13,3	;volatile
  4645                           
  4646                           ;main.c: 267: Init_System();
  4647  06AD  2EAE               	ljmp	l3455
  4648  06AE                     __end_of_Sleep_Mode:	
  4649  06AE                     __ptext23:	
  4650 ;; *************** function _Init_System *****************
  4651 ;; Defined at:
  4652 ;;		line 129 in file "C:\mcuproject\scm\zdt\D257_8F083_tssop20_\D257_8F083_tssop20_\main.c"
  4653 ;; Parameters:    Size  Location     Type
  4654 ;;		None
  4655 ;; Auto vars:     Size  Location     Type
  4656 ;;		None
  4657 ;; Return value:  Size  Location     Type
  4658 ;;                  1    wreg      void 
  4659 ;; Registers used:
  4660 ;;		wreg, status,2
  4661 ;; Tracked objects:
  4662 ;;		On entry : 300/0
  4663 ;;		On exit  : 300/100
  4664 ;;		Unchanged: 0/0
  4665 ;; Data sizes:     COMMON   BANK0   BANK1   BANK2
  4666 ;;      Params:         0       0       0       0
  4667 ;;      Locals:         0       0       0       0
  4668 ;;      Temps:          0       0       0       0
  4669 ;;      Totals:         0       0       0       0
  4670 ;;Total ram usage:        0 bytes
  4671 ;; Hardware stack levels used:    1
  4672 ;; Hardware stack levels required when called:    1
  4673 ;; This function calls:
  4674 ;;		Nothing
  4675 ;; This function is called by:
  4676 ;;		_Sleep_Mode
  4677 ;;		_main
  4678 ;; This function uses a non-reentrant model
  4679 ;;
  4680                           
  4681                           
  4682                           ;psect for function _Init_System
  4683  06AE                     _Init_System:	
  4684  06AE                     l3455:	
  4685                           ;incstack = 0
  4686                           ; Regs used in _Init_System: [wreg+status,2]
  4687                           
  4688  06AE  0000               	nop	;# 
  4689  06AF  0064               	clrwdt	;# 
  4690                           
  4691                           ;main.c: 133: INTCON = 0;
  4692  06B0  018B               	clrf	11	;volatile
  4693                           
  4694                           ;main.c: 134: OSCCON = 0X72;
  4695  06B1  3072               	movlw	114
  4696  06B2  1283               	bcf	3,5	;RP0=0, select bank0
  4697  06B3  1303               	bcf	3,6	;RP1=0, select bank0
  4698  06B4  0094               	movwf	20	;volatile
  4699                           
  4700                           ;main.c: 135: OPTION_REG = 0;
  4701                           
  4702                           ;main.c: 140: TRISA = 0xE2;
  4703                           
  4704                           ;main.c: 141: PORTA = 0x00;
  4705                           
  4706                           ;main.c: 142: WPUA = 0xC0;
  4707                           
  4708                           ;main.c: 143: TRISB = 0xE0;
  4709                           
  4710                           ;main.c: 144: PORTB = 0;
  4711                           
  4712                           ;main.c: 145: WPUB = 0x80;
  4713                           
  4714                           ;main.c: 146: TRISC = 0x00;
  4715                           
  4716                           ;main.c: 147: PORTC = 0;
  4717  06B5  26C5               	fcall	PL2	;call to abstracted procedure
  4718                           
  4719                           ;main.c: 149: PIE1 = 2;
  4720  06B6  3002               	movlw	2
  4721  06B7  1303               	bcf	3,6	;RP1=0, select bank0
  4722  06B8  008E               	movwf	14	;volatile
  4723                           
  4724                           ;main.c: 150: PR2 = 250;
  4725  06B9  30FA               	movlw	250
  4726  06BA  0091               	movwf	17	;volatile
  4727                           
  4728                           ;main.c: 151: T2CON = 4;
  4729  06BB  3004               	movlw	4
  4730  06BC  0093               	movwf	19	;volatile
  4731                           
  4732                           ;main.c: 153: INTCON = 0XC0;
  4733  06BD  30C0               	movlw	192
  4734  06BE  008B               	movwf	11	;volatile
  4735                           
  4736                           ;main.c: 154: ADCON0 = 0X41;
  4737  06BF  3041               	movlw	65
  4738  06C0  1683               	bsf	3,5	;RP0=1, select bank1
  4739  06C1  0095               	movwf	21	;volatile
  4740                           
  4741                           ;main.c: 155: ADON = 1;
  4742  06C2  1415               	bsf	21,0	;volatile
  4743                           
  4744                           ;main.c: 156: ADCON1 = 0x00;
  4745  06C3  0196               	clrf	22	;volatile
  4746  06C4  0008               	return
  4747  06C5                     __end_of_Init_System:	
  4748  06C5                     PL2:	
  4749  06C5  0181               	clrf	1	;volatile
  4750  06C6  30E2               	movlw	226
  4751  06C7  1683               	bsf	3,5	;RP0=1, select bank1
  4752  06C8  0085               	movwf	5	;volatile
  4753  06C9  0186               	clrf	6	;volatile
  4754  06CA  30C0               	movlw	192
  4755  06CB  0088               	movwf	8	;volatile
  4756  06CC  30E0               	movlw	224
  4757  06CD  1283               	bcf	3,5	;RP0=0, select bank0
  4758  06CE  0085               	movwf	5	;volatile
  4759  06CF  0186               	clrf	6	;volatile
  4760  06D0  3080               	movlw	128
  4761  06D1  0088               	movwf	8	;volatile
  4762  06D2  1703               	bsf	3,6	;RP1=1, select bank2
  4763  06D3  0185               	clrf	5	;volatile
  4764  06D4  0186               	clrf	6	;volatile
  4765  06D5  0008               	return
  4766  06D6                     __end_ofPL2:	
  4767                           
  4768                           	psect	text24
  4769  0757                     __ptext24:	
  4770 ;; *************** function _Isr_Timer *****************
  4771 ;; Defined at:
  4772 ;;		line 181 in file "C:\mcuproject\scm\zdt\D257_8F083_tssop20_\D257_8F083_tssop20_\main.c"
  4773 ;; Parameters:    Size  Location     Type
  4774 ;;		None
  4775 ;; Auto vars:     Size  Location     Type
  4776 ;;		None
  4777 ;; Return value:  Size  Location     Type
  4778 ;;                  1    wreg      void 
  4779 ;; Registers used:
  4780 ;;		wreg, status,2, status,0
  4781 ;; Tracked objects:
  4782 ;;		On entry : 0/0
  4783 ;;		On exit  : 300/0
  4784 ;;		Unchanged: 0/0
  4785 ;; Data sizes:     COMMON   BANK0   BANK1   BANK2
  4786 ;;      Params:         0       0       0       0
  4787 ;;      Locals:         0       0       0       0
  4788 ;;      Temps:          2       0       0       0
  4789 ;;      Totals:         2       0       0       0
  4790 ;;Total ram usage:        2 bytes
  4791 ;; Hardware stack levels used:    1
  4792 ;; This function calls:
  4793 ;;		Nothing
  4794 ;; This function is called by:
  4795 ;;		Interrupt level 1
  4796 ;; This function uses a non-reentrant model
  4797 ;;
  4798                           
  4799                           
  4800                           ;psect for function _Isr_Timer
  4801  0757                     _Isr_Timer:	
  4802                           
  4803                           ;main.c: 183: if(TMR2IF)
  4804  0757  1283               	bcf	3,5	;RP0=0, select bank0
  4805  0758  1303               	bcf	3,6	;RP1=0, select bank0
  4806  0759  1C8D               	btfss	13,1	;volatile
  4807  075A  2F7A               	goto	i1l4339
  4808                           
  4809                           ;main.c: 184: {
  4810                           ;main.c: 185: TMR2IF = 0;
  4811  075B  108D               	bcf	13,1	;volatile
  4812                           
  4813                           ;main.c: 186: if(++intCount10 > 3)
  4814  075C  3004               	movlw	4
  4815  075D  0ACB               	incf	_intCount10,f
  4816  075E  024B               	subwf	_intCount10,w
  4817  075F  1C03               	skipc
  4818  0760  2F6B               	goto	i1l4329
  4819                           
  4820                           ;main.c: 187: {
  4821                           ;main.c: 188: intCount10 = 0;
  4822  0761  01CB               	clrf	_intCount10
  4823                           
  4824                           ;main.c: 189: if(beepTime > 0)
  4825  0762  086A               	movf	_beepTime,w
  4826  0763  1903               	btfsc	3,2
  4827  0764  2F69               	goto	i1l994
  4828                           
  4829                           ;main.c: 190: {
  4830                           ;main.c: 191: PORTA ^= 0x04;
  4831  0765  3004               	movlw	4
  4832  0766  1683               	bsf	3,5	;RP0=1, select bank1
  4833  0767  0686               	xorwf	6,f	;volatile
  4834                           
  4835                           ;main.c: 192: }
  4836  0768  2F6B               	goto	i1l4329
  4837  0769                     i1l994:	
  4838                           
  4839                           ;main.c: 193: else
  4840                           ;main.c: 194: {
  4841                           ;main.c: 195: PORTA &= 0xFB;
  4842  0769  1683               	bsf	3,5	;RP0=1, select bank1
  4843  076A  1106               	bcf	6,2	;volatile
  4844  076B                     i1l4329:	
  4845                           
  4846                           ;main.c: 196: }
  4847                           ;main.c: 197: }
  4848                           ;main.c: 198: if(++MainTime >= 158)
  4849  076B  309E               	movlw	158
  4850  076C  1283               	bcf	3,5	;RP0=0, select bank0
  4851  076D  0ADC               	incf	_MainTime,f	;volatile
  4852  076E  025C               	subwf	_MainTime,w	;volatile
  4853  076F  1C03               	skipc
  4854  0770  2F7B               	goto	i1l999
  4855                           
  4856                           ;main.c: 199: {
  4857                           ;main.c: 200: MainTime = 0;
  4858  0771  01DC               	clrf	_MainTime	;volatile
  4859                           
  4860                           ;main.c: 201: B_MainLoop = 1;
  4861  0772  14F9               	bsf	_B_MainLoop/(0+8),_B_MainLoop& (0+7)	;volatile
  4862                           
  4863                           ;main.c: 202: if(++count1s >= 100)
  4864  0773  3064               	movlw	100
  4865  0774  0ADA               	incf	_count1s,f
  4866  0775  025A               	subwf	_count1s,w
  4867  0776  1C03               	skipc
  4868  0777  2F7B               	goto	i1l999
  4869                           
  4870                           ;main.c: 203: {
  4871                           ;main.c: 204: count1s = 0;
  4872  0778  01DA               	clrf	_count1s
  4873  0779  2F7B               	goto	i1l999
  4874  077A                     i1l4339:	
  4875                           
  4876                           ;main.c: 208: else
  4877                           ;main.c: 209: {
  4878                           ;main.c: 210: PIR1 = 0;
  4879  077A  018D               	clrf	13	;volatile
  4880  077B                     i1l999:	
  4881  077B  0871               	movf	??_Isr_Timer+1,w
  4882  077C  008A               	movwf	10
  4883  077D  0E70               	swapf	??_Isr_Timer^(0+-128),w
  4884  077E  0083               	movwf	3
  4885  077F  0EFE               	swapf	126,f
  4886  0780  0E7E               	swapf	126,w
  4887  0781  0009               	retfie
  4888  0782                     __end_of_Isr_Timer:	
  4889  007E                     btemp	set	126	;btemp
  4890  007E                     wtemp0	set	126
  4891                           
  4892                           	psect	intentry
  4893  0004                     __pintentry:	
  4894                           ;incstack = 0
  4895                           ; Regs used in _Isr_Timer: [wreg+status,2+status,0]
  4896                           
  4897  0004                     interrupt_function:	
  4898  007E                     saved_w	set	btemp
  4899  0004  00FE               	movwf	btemp
  4900  0005  0E03               	swapf	3,w
  4901  0006  00F0               	movwf	??_Isr_Timer
  4902  0007  080A               	movf	10,w
  4903  0008  00F1               	movwf	??_Isr_Timer+1
  4904  0009  118A  2F57         	ljmp	_Isr_Timer


Data Sizes:
    Strings     0
    Constant    47
    Data        2
    BSS         62
    Persistent  2
    Stack       0

Auto Spaces:
    Space          Size  Autos    Used
    COMMON           14      9      12
    BANK0            80     13      77
    BANK1            80      0       0
    BANK2            80      0       0

Pointer List with Targets:

    None.

Critical Paths under _main in COMMON

    _main->_checkBatAD
    _workCtr->___lwdiv
    _refreshLed->_DelayUs
    _refreshLed->_ledOpen
    _ledCtr->___lwdiv
    _keyCtr->_keyRead
    _keyCtr->_keyRead2
    _keyCtr->_keyRead3
    _keyCtr->_keyRead4
    _checkOutA->_ADC_Sample
    _checkBatAD->_ADC_Sample

Critical Paths under _Isr_Timer in COMMON

    None.

Critical Paths under _main in BANK0

    _checkOutA->_ADC_Sample
    _checkBatAD->_ADC_Sample

Critical Paths under _Isr_Timer in BANK0

    None.

Critical Paths under _main in BANK1

    None.

Critical Paths under _Isr_Timer in BANK1

    None.

Critical Paths under _main in BANK2

    None.

Critical Paths under _Isr_Timer in BANK2

    None.

Call Graph Tables:

 ---------------------------------------------------------------------------------
 (Depth) Function   	        Calls       Base Space   Used Autos Params    Refs
 ---------------------------------------------------------------------------------
 (0) _main                                                 0     0      0    4658
                        _Init_System
                         _Sleep_Mode
                         _checkBatAD
                          _checkOutA
                            _chrgCtr
                             _keyCtr
                             _ledCtr
                         _refreshLed
                            _workCtr
 ---------------------------------------------------------------------------------
 (1) _workCtr                                              6     6      0     600
                                              0 BANK0      6     6      0
                            ___lwdiv
                           _pwm1Init
                           _pwm1Stop
 ---------------------------------------------------------------------------------
 (2) _pwm1Init                                             0     0      0       0
 ---------------------------------------------------------------------------------
 (1) _refreshLed                                           0     0      0     832
                            _DelayUs
                            _ledOpen
 ---------------------------------------------------------------------------------
 (2) _ledOpen                                              2     1      1     786
                                              2 COMMON     2     1      1
 ---------------------------------------------------------------------------------
 (2) _DelayUs                                              2     2      0      46
                                              2 COMMON     2     2      0
 ---------------------------------------------------------------------------------
 (1) _ledCtr                                               2     2      0    1624
                                              0 BANK0      2     2      0
                            ___lbdiv
                            ___lbmod
                            ___lwdiv
 ---------------------------------------------------------------------------------
 (2) ___lwdiv                                              7     3      4     501
                                              2 COMMON     7     3      4
 ---------------------------------------------------------------------------------
 (2) ___lbmod                                              5     4      1     557
                                              2 COMMON     5     4      1
 ---------------------------------------------------------------------------------
 (2) ___lbdiv                                              4     3      1     501
                                              2 COMMON     4     3      1
 ---------------------------------------------------------------------------------
 (1) _keyCtr                                               1     1      0     202
                                              3 COMMON     1     1      0
                            _keyRead
                           _keyRead2
                           _keyRead3
                           _keyRead4
 ---------------------------------------------------------------------------------
 (2) _keyRead4                                             1     1      0      22
                                              2 COMMON     1     1      0
 ---------------------------------------------------------------------------------
 (2) _keyRead3                                             1     1      0      22
                                              2 COMMON     1     1      0
 ---------------------------------------------------------------------------------
 (2) _keyRead2                                             1     1      0      22
                                              2 COMMON     1     1      0
 ---------------------------------------------------------------------------------
 (2) _keyRead                                              1     1      0      22
                                              2 COMMON     1     1      0
 ---------------------------------------------------------------------------------
 (1) _chrgCtr                                              5     5      0      24
                                              2 COMMON     5     5      0
                           _pwm1Stop
                           _pwm2Init
                           _pwm2Stop
 ---------------------------------------------------------------------------------
 (2) _pwm2Init                                             0     0      0       0
 ---------------------------------------------------------------------------------
 (1) _checkOutA                                            0     0      0     688
                         _ADC_Sample
                           _pwm2Stop
 ---------------------------------------------------------------------------------
 (1) _checkBatAD                                           2     2      0     688
                                              7 COMMON     2     2      0
                         _ADC_Sample
                           _pwm1Stop
                           _pwm2Stop
 ---------------------------------------------------------------------------------
 (2) _pwm2Stop                                             0     0      0       0
 ---------------------------------------------------------------------------------
 (2) _pwm1Stop                                             0     0      0       0
 ---------------------------------------------------------------------------------
 (2) _ADC_Sample                                          18    17      1     688
                                              2 COMMON     5     4      1
                                              0 BANK0     13    13      0
 ---------------------------------------------------------------------------------
 (1) _Sleep_Mode                                           0     0      0       0
                        _Init_System
 ---------------------------------------------------------------------------------
 (2) _Init_System                                          0     0      0       0
 ---------------------------------------------------------------------------------
 Estimated maximum stack depth 2
 ---------------------------------------------------------------------------------
 (Depth) Function   	        Calls       Base Space   Used Autos Params    Refs
 ---------------------------------------------------------------------------------
 (3) _Isr_Timer                                            2     2      0       0
                                              0 COMMON     2     2      0
 ---------------------------------------------------------------------------------
 Estimated maximum stack depth 3
 ---------------------------------------------------------------------------------

 Call Graph Graphs:

 _main (ROOT)
   _Init_System
   _Sleep_Mode
     _Init_System
   _checkBatAD
     _ADC_Sample
     _pwm1Stop
     _pwm2Stop
   _checkOutA
     _ADC_Sample
     _pwm2Stop
   _chrgCtr
     _pwm1Stop
     _pwm2Init
     _pwm2Stop
   _keyCtr
     _keyRead
     _keyRead2
     _keyRead3
     _keyRead4
   _ledCtr
     ___lbdiv
     ___lbmod
     ___lwdiv
   _refreshLed
     _DelayUs
     _ledOpen
   _workCtr
     ___lwdiv
     _pwm1Init
     _pwm1Stop

 _Isr_Timer (ROOT)

 Address spaces:
Name               Size   Autos  Total    Cost      Usage
SFR3                 0      0       0       4        0.0%
BITSFR3              0      0       0       4        0.0%
BANK2               50      0       0       7        0.0%
BITBANK2            50      0       0      10        0.0%
SFR2                 0      0       0       5        0.0%
BITSFR2              0      0       0       5        0.0%
BANK1               50      0       0       6        0.0%
BITBANK1            50      0       0       5        0.0%
SFR1                 0      0       0       2        0.0%
BITSFR1              0      0       0       2        0.0%
BANK0               50      D      4D       4       96.3%
BITBANK0            50      0       0       3        0.0%
SFR0                 0      0       0       1        0.0%
BITSFR0              0      0       0       1        0.0%
COMMON               E      9       C       1       85.7%
BITCOMMON            E      0       1       0        7.1%
CODE                 0      0       0       0        0.0%
DATA                 0      0      59       9        0.0%
ABS                  0      0      59       8        0.0%
NULL                 0      0       0       0        0.0%
STACK                0      0       0       2        0.0%


Microchip Technology PIC Macro Assembler V1.45 build -152302408 
Symbol Table                                                                                   Mon Jan 12 16:51:08 2026

            _protectFlag 0046                        pc 0002                       PL2 06C5  
                     PL4 02E4                       PL6 02F3                       PL8 02FD  
                     fsr 0004                      PL10 067E                      PL12 0684  
                    PL14 0306                      _GIE 005F                      _RB0 0030  
                    _RA3 0433                      _RB1 0031                      _RB2 0032  
                    _RB3 0033                      _RB4 0034                      _RA7 0437  
                    _PR2 0011      __size_of_ADC_Sample 00D2                      fsr0 0004  
                    indf 0000                     S4701 0782                     l1011 011E  
                   l1021 01A0                     l1017 015A                     l1105 0333  
                   l2050 055B                     l1171 061F                     l2051 055F  
                   l1172 0623                     l1164 05ED                     l2060 0588  
                   l2052 0563                     l1093 0282                     l1165 05E6  
                   l1166 05EB                     l1158 05C2                     l2062 059D  
                   l2055 0578                     l2047 0553                     l2071 04D7  
                   l2057 057C                     l2049 0557                     l2081 04FF  
                   l2073 04DF                     l2058 0580                     l2066 04C7  
                   l4011 0277                     l2059 0584                     l2091 0527  
                   l2083 0507                     l2075 04E7                     l4021 0285  
                   l2093 052F                     l2085 050F                     l2077 04EF  
                   l2069 04CF                     l4015 027C                     l4023 0287  
                   l2087 0517                     l2079 04F7                     l4009 0276  
                   l4201 060E                     l2089 051F                     l4051 02C8  
                   l4203 0610                     l4045 02B8                     l4037 0296  
                   l4301 0543                     l3505 0108                     l2385 0477  
                   l3523 0143                     l3515 0128                     l4163 05D4  
                   l3621 063E                     l4157 05CD                     l3455 06AE  
                   l3527 014E                     l4191 0605                     l4511 0335  
                   l3529 0156                     l4425 0471                     l4601 03F0  
                   l3705 0567                     l3539 01A4                     l3491 00FE  
                   l3643 0650                     l4611 0418                     l3715 05A0  
                   l4523 0352                     l4507 032E                     l3557 03B0  
                   l4613 042C                     l3709 058C                     l4439 0484  
                   l4455 0467                     l4447 0453                     l4471 0494  
                   l4607 0402                     l4551 0372                     l4527 0355  
                   l4519 0343                     l3489 00FC                     l3905 00E7  
                   l3665 0663                     l4561 039D                     l4553 0375  
                   l4545 036D                     l4537 0362                     l3499 0107  
                   l4483 04AB                     l4299 0537                     l4539 0364  
                   l3941 01EC                     l4549 0370                     l4645 06F4  
                   l4629 06DE                     l3871 007D                     l3855 0057  
                   l3935 01E1                     l3687 0677                     l4567 03A7  
                   l3873 0080                     l3929 01D8                     l4593 03D4  
                   l3963 020B                     l3955 0201                     l4595 03D7  
                   l4499 0323                     l3965 020D                     l4589 03C7  
                   l4669 071F                     l3879 0090                     l3983 0232  
                   l3975 0228                     l3889 00B7                     l3977 022A  
                   l3899 00DE                     l3995 024E                     l3987 0244  
                   l3997 0250                     _ADON 04A8                     _CHS4 04B6  
                   _IOCA 0089                     _IOCB 0009                     u2305 0242  
                   u1605 0149                     u2405 02A8                     u1615 0154  
                   u2095 00A9                     u2335 0260                     u2425 02C1  
                   u2355 0273                     u1655 0195                     _PIE1 000E  
                   u1675 01AD                     u3285 049D                     u3475 0399  
                   _PEIE 005E                     _RAIE 0073                     _RAIF 006B  
                   u3485 03A3                     u3727 00F8                     _RBIE 005B  
                   _RBIF 0058                     _PIR1 000D                     _WPUA 0088  
                   _WPUB 0008                     _main 06D6                     btemp 007E  
                   start 000B          __end_of_DelayUs 05A7            ??_Init_System 0072  
                  ?_main 0070          __end_of___lbdiv 0486          __end_of___lbmod 046B  
                  _T2CON 0013          __end_of___lwdiv 04B0                    i1l994 0769  
                  i1l999 077B            _countHalfFull 004C                    _PORTA 0086  
                  _PORTB 0006                    _PORTC 0106                    _TRISA 0085  
                  _TRISB 0005                    _PWMTH 0018                    _TRISC 0105  
                  _PWMTL 0017          __end_of_chrgCtr 02CD          __end_of_ledOpen 059E  
        __end_of_keyRead 0644       chrgCtr@waitMaxTime 0075           __pbitbssCOMMON 03C8  
                  pclath 000A                    status 0003                    wtemp0 007E  
        __end_of_workCtr 03B0          ___lbdiv@divisor 0072          ___lbdiv@counter 0074  
        __initialization 000D             __end_of_main 0722                   ??_main 0079  
         _firstCheckTime 0045      __end_of_Init_System 06C5                   _ADCON0 0095  
                 _ADCON1 0096                   _ADRESH 0099                   _ADRESL 0098  
                 _GODONE 04A9                   i1l4329 076B                   i1l4339 077A  
                 _LDO_EN 04B2                   _INTCON 000B                ??_DelayUs 0072  
                 _OSCCON 0014                   _TMR2IF 0069                   _PWMD0L 0019  
                 _PWMD4L 001B             ??_ADC_Sample 0073                   _PWMT4L 001C  
           keyCtr@kclick 0073       __size_of_Isr_Timer 002B               _Sleep_Mode 0689  
              ??___lbdiv 0073         __end_of_keyRead2 0656         __end_of_keyRead3 066A  
       __end_of_keyRead4 067E                   _chrgAD 002C                ??___lbmod 0073  
                 _ledCnt 003A                   _ledCtr 03B7                ??___lwdiv 0076  
                 _keyCtr 05A7                ??_chrgCtr 0072                   _result 0022  
              ??_ledOpen 0073         __end_of_pwm1Init 04C1         __end_of_pwm2Init 02E4  
       __end_of_pwm1Stop 03B7         __end_of_pwm2Stop 02D4         __end_of_numArray 0757  
              ??_keyRead 0072             __pdataCOMMON 007B       __end_of_ADC_Sample 01BB  
                 saved_w 007E      workCtr@tempStopTime 005F           _firstShowCount 006B  
              ??_workCtr 005D         __end_of_stopTime 0739         ___lbdiv@dividend 0073  
        ___lbmod@divisor 0072  __end_of__initialization 0018          ___lbmod@counter 0075  
         __pcstackCOMMON 0070             __pidataBANK0 0000       __size_of_checkOutA 001E  
            _Init_System 06AE               __end_ofPL2 06D6               __end_ofPL4 02F3  
             __end_ofPL6 02FD               __end_ofPL8 0306         ___lbdiv@quotient 0075  
           _chrgBatCount 0049        __end_of_Isr_Timer 0782               _checkBatAD 0039  
             __pbssBANK0 0020             _chrgFullFlag 0050              ?_Sleep_Mode 0070  
             __pmaintext 06D6               __pintentry 0004                  ?_ledCtr 0070  
           _chrgWaitTime 004D                  ?_keyCtr 0070               _closeCount 0032  
                _B_OnOff 03C8                  _PWMD01H 001E                  _PWMCON0 0015  
                _PWMCON1 0016                  _PWMCON2 001D        __end_of_checkOutA 0039  
             __stringtab 0722                ?_keyRead2 0070                ?_keyRead3 0070  
              ?_keyRead4 0070                  _DelayUs 059E                ?_pwm1Init 0070  
              ?_pwm2Init 0070                ?_pwm1Stop 0070               _intCount10 004B  
              ?_pwm2Stop 0070          ADC_Sample@adldo 0072          ADC_Sample@admax 0066  
        ADC_Sample@admin 0064          ADC_Sample@adsum 0060                  ___lbdiv 046B  
                ___lbmod 044F                  _addTime 004E                  ___lwdiv 0486  
        __size_of_ledCtr 0098          __size_of_keyCtr 007F                  _chrgCtr 01BB  
             _lowBatFlag 003D                  __ptext1 030B                  __ptext2 04B0  
                __ptext3 04C1                  __ptext4 0551                  __ptext5 059E  
                __ptext6 03B7                  __ptext7 0486                  __ptext8 044F  
                __ptext9 046B                  _ledOpen 0551                  _count1s 005A  
                _count5s 0036                  _keyRead 0626                  _maxduty 0051  
    __size_of_Sleep_Mode 0025                  _subTime 004F              ?_checkBatAD 0070  
                clrloop0 079F                  _workCtr 030B     end_of_initialization 0018  
             _refreshLed 04C1               ??_keyRead2 0072               ??_keyRead3 0072  
             ??_keyRead4 0072     workCtr@tempStartTime 0061               ??_pwm1Init 0072  
             ??_pwm2Init 0072               ??_pwm1Stop 0072               ??_pwm2Stop 0072  
          _longPressFlag 0059        __end_of_startTime 074A               _showNumAge 006C  
       ___lbmod@dividend 0074               ledOpen@low 0072              ___lbmod@rem 0076  
       ledCtr@tempMinute 005E      __size_of_checkBatAD 00B0             ?_Init_System 0070  
          __pidataCOMMON 0000           __end_of_ledCtr 044F           __end_of_keyCtr 0626  
            __end_ofPL10 0684              __end_ofPL12 0689              __end_ofPL14 030B  
    start_initialization 000D                _Isr_Timer 0757              ?_refreshLed 0070  
           ??_Sleep_Mode 0072                 ??_ledCtr 005D        ADC_Sample@ad_temp 0068  
            __pdataBANK0 006C                 ??_keyCtr 0073              __pbssCOMMON 007A  
              ___latbits 0001            __pcstackBANK0 005D            _chrgCloseTime 003C  
     __end_of_Sleep_Mode 06AE               ?_Isr_Timer 0070              _chrgPWMFlag 003F  
               ?_DelayUs 0070                _checkOutA 001B        __size_of_keyRead2 0012  
      __size_of_keyRead3 0014        __size_of_keyRead4 0014                __pnvBANK0 006A  
              _chrgMaxAD 0047         ___lwdiv@dividend 0074        __size_of_pwm1Init 0011  
      __size_of_pwm2Init 0010        __size_of_pwm1Stop 0007        __size_of_pwm2Stop 0007  
               ?___lbdiv 0072                 ?___lbmod 0072                 ?___lwdiv 0072  
               ?_chrgCtr 0070      __size_of_refreshLed 0090                __pstrings 0722  
              __pswtext1 0782                _count900s 0034                 ?_ledOpen 0072  
               ?_keyRead 0070                _keyCount2 0057                _keyCount3 0056  
              _keyCount4 0055           ADC_Sample@adch 005E                _fullCount 002E  
           ??_checkBatAD 0077                _lockCount 0048         ___lwdiv@quotient 0077  
               ?_workCtr 0070              ADC_Sample@i 005F              ADC_Sample@j 005D  
              _modelStep 0044        interrupt_function 0004               ?_checkOutA 0070  
               DelayUs@a 0073                clear_ram0 079E                _sleepTime 0038  
     __end_of_checkBatAD 00E9              __stringbase 0727     __size_of_Init_System 0017  
              _startTime 0739         keyRead@keyStatus 0072              ??_Isr_Timer 0070  
               _MainTime 005C              DelayUs@Time 0072               _ADC_Sample 00E9  
       __size_of_DelayUs 0009         __size_of___lbdiv 001B         __size_of___lbmod 001C  
       __size_of___lwdiv 002A       __end_of__stringtab 0728         __size_of_chrgCtr 0112  
               _batValue 0054                 _beepTime 006A         __size_of_ledOpen 004D  
       __size_of_keyRead 001E                 _adresult 0024                 _chrgFlag 005B  
               _chrgMode 004A          ___lwdiv@divisor 0072          ___lwdiv@counter 0076  
               __ptext10 05A7                 __ptext11 066A                 __ptext20 03B0  
               __ptext12 0656                 __ptext21 00E9                 __ptext13 0644  
               __ptext22 0689                 __ptext14 0626                 __ptext23 06AE  
               __ptext15 01BB                 __ptext24 0757                 __ptext16 02D4  
               __ptext17 001B                 __ptext18 0039                 __ptext19 02CD  
           _shanshuoTime 0042                 _count20s 0026             ??_refreshLed 0074  
       __size_of_workCtr 00A5                 _keyRead2 0644                 _keyRead3 0656  
               _keyRead4 066A                 _keyCount 0058            __size_of_main 004C  
            ??_checkOutA 0077              _preBatValue 0052                 _pwm1Init 04B0  
               _pwm2Init 02D4                 _pwm1Stop 03B0                 _pwm2Stop 02CD  
               _numArray 074A                 _tempData 0030             _motorPWMFlag 0040  
               _test_adc 003B                 _power_ad 0020                 _stopTime 0728  
               _workDuty 0053                 _workTime 0028                 _workStep 007A  
     __end_of_refreshLed 0551                 intlevel1 0000              ?_ADC_Sample 0072  
      keyRead2@keyStatus 0072                stringcode 0722              _showBatTime 003E  
           _showWorkFlag 0043               _B_MainLoop 03C9             _showWorkTime 0041  
      keyRead3@keyStatus 0072               _OPTION_REG 0001              _showNumAShi 007B  
      keyRead4@keyStatus 0072                 stringdir 0722                 stringtab 0722  
            _sumBatValue 002A             ledOpen@hight 0073  
